(lp0
(lp1
(dp2
S'Camera Start'
p3
S'Fri, 07 Dec 2018 13:56:07 +0000'
p4
sa(dp5
S'Stone0 '
p6
(dp7
S'theme'
p8
S'BLUE'
p9
sS'radius'
p10
I51
sS'center'
p11
(I272
I348
tp12
ssa(dp13
S'Stone1 '
p14
(dp15
g8
S'GREEN'
p16
sg10
I57
sg11
(I384
I315
tp17
ssa(dp18
S'Stone2 '
p19
(dp20
g8
S'RED'
p21
sg10
I51
sg11
(I156
I106
tp22
ssa(dp23
S'load_callibration '
p24
S'Fri, 07 Dec 2018 13:56:09 +0000'
p25
sa(dp26
g3
S'Fri, 07 Dec 2018 13:59:29 +0000'
p27
sa(dp28
S'reset '
p29
S'Fri, 07 Dec 2018 13:59:29 +0000'
p30
sa(dp31
S'Stone0 '
p32
(dp33
g8
g16
sg10
I44
sg11
(I288
I319
tp34
ssa(dp35
S'Stone1 '
p36
(dp37
g8
g21
sg10
I53
sg11
(I342
I103
tp38
ssa(dp39
g24
S'Fri, 07 Dec 2018 14:00:26 +0000'
p40
sa(dp41
g3
S'Fri, 07 Dec 2018 14:05:26 +0000'
p42
sa(dp43
g29
S'Fri, 07 Dec 2018 14:05:26 +0000'
p44
sa(dp45
S'Stone0 '
p46
(dp47
g8
g16
sg10
I52
sg11
(I321
I196
tp48
ssa(dp49
S'Stone1 '
p50
(dp51
g8
g9
sg10
I52
sg11
(I149
I182
tp52
ssa(dp53
g24
S'Fri, 07 Dec 2018 14:05:30 +0000'
p54
sa(dp55
g3
S'Fri, 07 Dec 2018 14:08:13 +0000'
p56
sa(dp57
g29
S'Fri, 07 Dec 2018 14:08:13 +0000'
p58
sa(dp59
S'Stone0 '
p60
(dp61
g8
g9
sg10
I52
sg11
(I233
I203
tp62
ssa(dp63
g24
S'Fri, 07 Dec 2018 14:08:22 +0000'
p64
sa(dp65
S'Stone0'
p66
(dp67
g8
g16
sg10
I59
sg11
(I140
I495
tp68
ssa(dp69
S'Stone1'
p70
(dp71
g8
g9
sg10
I51
sg11
(I827
I109
tp72
ssa(dp73
S'Default Loaded'
p74
S'Fri, 07 Dec 2018 14:11:05 +0000'
p75
sa(dp76
g3
S'Fri, 07 Dec 2018 14:13:48 +0000'
p77
sa(dp78
g29
S'Fri, 07 Dec 2018 14:13:48 +0000'
p79
sa(dp80
S'Stone0 '
p81
(dp82
g8
g9
sg10
I54
sg11
(I345
I309
tp83
ssa(dp84
S'Stone1 '
p85
(dp86
g8
g16
sg10
I47
sg11
(I66
I92
tp87
ssa(dp88
g24
S'Fri, 07 Dec 2018 14:13:59 +0000'
p89
saa.