(lp0
(lp1
(dp2
S'Stone0'
p3
(dp4
S'theme'
p5
S'BLUE'
p6
sS'radius'
p7
I52
sS'center'
p8
(I247
I342
tp9
ssa(dp10
S'Stone1'
p11
(dp12
g5
S'RED'
p13
sg7
I60
sg8
(I755
I216
tp14
ssa(dp15
S'Default Loaded'
p16
S'Mon, 03 Dec 2018 12:00:54 +0000'
p17
sa(dp18
S'reset '
p19
S'Mon, 03 Dec 2018 12:03:05 +0000'
p20
sa(dp21
S'Stone0'
p22
(dp23
g5
g13
sg7
I61
sg8
(I226
I552
tp24
ssa(dp25
S'Stone1'
p26
(dp27
g5
S'GREEN'
p28
sg7
I57
sg8
(I768
I342
tp29
ssa(dp30
S'Stone2'
p31
(dp32
g5
g6
sg7
I52
sg8
(I866
I97
tp33
ssa(dp34
S'Stone3'
p35
(dp36
g5
g13
sg7
I75
sg8
(I129
I111
tp37
ssa(dp38
g16
S'Mon, 03 Dec 2018 12:03:08 +0000'
p39
sa(dp40
g19
S'Mon, 03 Dec 2018 12:07:46 +0000'
p41
sa(dp42
S'Stone0'
p43
(dp44
g5
g13
sg7
I61
sg8
(I869
I595
tp45
ssa(dp46
S'Stone1'
p47
(dp48
g5
g6
sg7
I52
sg8
(I277
I541
tp49
ssa(dp50
S'Stone2'
p51
(dp52
g5
g28
sg7
I57
sg8
(I482
I405
tp53
ssa(dp54
S'Stone3'
p55
(dp56
g5
g28
sg7
I57
sg8
(I906
I266
tp57
ssa(dp58
S'Stone4'
p59
(dp60
g5
g28
sg7
I60
sg8
(I296
I208
tp61
ssa(dp62
S'Stone5'
p63
(dp64
g5
g28
sg7
I58
sg8
(I107
I129
tp65
ssa(dp66
S'Stone6'
p67
(dp68
g5
g6
sg7
I52
sg8
(I693
I86
tp69
ssa(dp70
g16
S'Mon, 03 Dec 2018 12:07:52 +0000'
p71
sa(dp72
g19
S'Mon, 03 Dec 2018 12:10:16 +0000'
p73
sa(dp74
S'Stone0'
p75
(dp76
g5
g6
sg7
I52
sg8
(I464
I602
tp77
ssa(dp78
S'Stone1'
p79
(dp80
g5
g13
sg7
I60
sg8
(I137
I552
tp81
ssa(dp82
S'Stone2'
p83
(dp84
g5
g6
sg7
I52
sg8
(I762
I484
tp85
ssa(dp86
S'Stone3'
p87
(dp88
g5
g28
sg7
I60
sg8
(I484
I332
tp89
ssa(dp90
S'Stone4'
p91
(dp92
g5
g28
sg7
I58
sg8
(I913
I309
tp93
ssa(dp94
S'Stone5'
p95
(dp96
g5
g28
sg7
I59
sg8
(I271
I204
tp97
ssa(dp98
S'Stone6'
p99
(dp100
g5
g6
sg7
I52
sg8
(I573
I124
tp101
ssa(dp102
S'Stone7'
p103
(dp104
g5
g28
sg7
I58
sg8
(I944
I98
tp105
ssa(dp106
S'Stone8'
p107
(dp108
g5
g13
sg7
I60
sg8
(I53
I73
tp109
ssa(dp110
g16
S'Mon, 03 Dec 2018 12:10:19 +0000'
p111
sa(dp112
g19
S'Mon, 03 Dec 2018 12:12:05 +0000'
p113
sa(dp114
S'Stone0'
p115
(dp116
g5
g6
sg7
I77
sg8
(I525
I402
tp117
ssa(dp118
S'Default Loaded'
p119
S'Mon, 03 Dec 2018 12:12:18 +0000'
p120
sa(dp121
g19
S'Mon, 03 Dec 2018 12:15:21 +0000'
p122
sa(dp123
S'Camera Start'
p124
S'Mon, 03 Dec 2018 12:15:29 +0000'
p125
saa.