(lp0
(lp1
(dp2
S'Camera Start'
p3
S'Mon, 03 Dec 2018 13:25:19 +0000'
p4
sa(dp5
S'Stone0 '
p6
(dp7
S'theme'
p8
S'BLUE'
p9
sS'radius'
p10
I49
sS'center'
p11
(I298
I298
tp12
ssa(dp13
S'load_callibration '
p14
S'Mon, 03 Dec 2018 13:25:28 +0000'
p15
saa.