(lp0
(lp1
(dp2
S'Stone0'
p3
(dp4
S'theme'
p5
S'BLUE'
p6
sS'radius'
p7
I43
sS'center'
p8
(I327
I595
tp9
ssa(dp10
S'Stone1'
p11
(dp12
g5
S'RED'
p13
sg7
I48
sg8
(I564
I479
tp14
ssa(dp15
S'Default Loaded'
p16
S'Fri, 30 Nov 2018 16:11:21 +0000'
p17
sa(dp18
S'reset '
p19
S'Fri, 30 Nov 2018 16:11:25 +0000'
p20
sa(dp21
S'Stone0'
p22
(dp23
g5
S'GREEN'
p24
sg7
I43
sg8
(I897
I191
tp25
ssa(dp26
S'Stone1'
p27
(dp28
g5
g24
sg7
I44
sg8
(I814
I192
tp29
ssa(dp30
S'Stone2'
p31
(dp32
g5
g24
sg7
I44
sg8
(I724
I192
tp33
ssa(dp34
S'Stone3'
p35
(dp36
g5
g24
sg7
I45
sg8
(I896
I93
tp37
ssa(dp38
S'Stone4'
p39
(dp40
g5
g24
sg7
I45
sg8
(I813
I93
tp41
ssa(dp42
S'Stone5'
p43
(dp44
g5
g24
sg7
I45
sg8
(I723
I93
tp45
ssa(dp46
g16
S'Fri, 30 Nov 2018 16:11:27 +0000'
p47
sa(dp48
g19
S'Fri, 30 Nov 2018 16:12:41 +0000'
p49
sa(dp50
S'Stone0'
p51
(dp52
g5
g6
sg7
I39
sg8
(I134
I419
tp53
ssa(dp54
S'Stone1'
p55
(dp56
g5
g6
sg7
I39
sg8
(I494
I408
tp57
ssa(dp58
S'Stone2'
p59
(dp60
g5
g24
sg7
I44
sg8
(I295
I296
tp61
ssa(dp62
S'Stone3'
p63
(dp64
g5
g13
sg7
I45
sg8
(I200
I116
tp65
ssa(dp66
S'Stone4'
p67
(dp68
g5
g13
sg7
I46
sg8
(I392
I91
tp69
ssa(dp70
S'Default Loaded'
p71
S'Fri, 30 Nov 2018 16:13:06 +0000'
p72
sa(dp73
g19
S'Fri, 30 Nov 2018 16:14:49 +0000'
p74
sa(dp75
S'Camera Start'
p76
S'Fri, 30 Nov 2018 16:15:08 +0000'
p77
sa(dp78
g76
S'Fri, 30 Nov 2018 16:15:13 +0000'
p79
sa(dp80
g19
S'Fri, 30 Nov 2018 16:15:13 +0000'
p81
sa(dp82
S'Stone0'
p83
(dp84
g5
g24
sg7
I68
sg8
(I15
I512
tp85
ssa(dp86
S'Stone1'
p87
(dp88
g5
g6
sg7
I60
sg8
(I310
I231
tp89
ssa(dp90
g16
S'Fri, 30 Nov 2018 16:18:14 +0000'
p91
sa(dp92
S'Stone0'
p93
(dp94
g5
g24
sg7
I69
sg8
(I987
I556
tp95
ssa(dp96
S'Stone1'
p97
(dp98
g5
g6
sg7
I58
sg8
(I224
I169
tp99
ssa(dp100
S'Stone2'
p101
(dp102
g5
g24
sg7
I70
sg8
(I971
I156
tp103
ssa(dp104
g71
S'Fri, 30 Nov 2018 16:18:47 +0000'
p105
sa(dp106
g76
S'Fri, 30 Nov 2018 16:20:43 +0000'
p107
sa(dp108
g19
S'Fri, 30 Nov 2018 16:20:43 +0000'
p109
sa(dp110
S'Stone0'
p111
(dp112
g5
g6
sg7
I77
sg8
(I525
I402
tp113
ssa(dp114
g71
S'Fri, 30 Nov 2018 16:21:23 +0000'
p115
saa.