(lp0
(lp1
(dp2
S'Stone0'
p3
(dp4
S'theme'
p5
S'GREEN'
p6
sS'radius'
p7
I57
sS'center'
p8
(I575
I485
tp9
ssa(dp10
S'Stone1'
p11
(dp12
g5
S'BLUE'
p13
sg7
I52
sg8
(I423
I131
tp14
ssa(dp15
S'Default Loaded'
p16
S'Tue, 04 Dec 2018 12:08:24 +0000'
p17
sa(dp18
S'reset '
p19
S'Tue, 04 Dec 2018 12:10:01 +0000'
p20
sa(dp21
S'Stone0'
p22
(dp23
g5
g13
sg7
I52
sg8
(I256
I480
tp24
ssa(dp25
S'Stone1'
p26
(dp27
g5
g6
sg7
I57
sg8
(I682
I437
tp28
ssa(dp29
S'Stone2'
p30
(dp31
g5
g13
sg7
I52
sg8
(I560
I318
tp32
ssa(dp33
S'Stone3'
p34
(dp35
g5
g6
sg7
I61
sg8
(I249
I284
tp36
ssa(dp37
S'Stone4'
p38
(dp39
g5
g6
sg7
I58
sg8
(I445
I196
tp40
ssa(dp41
g16
S'Tue, 04 Dec 2018 12:13:29 +0000'
p42
sa(dp43
g19
S'Tue, 04 Dec 2018 12:14:59 +0000'
p44
sa(dp45
S'Camera Start'
p46
S'Tue, 04 Dec 2018 12:15:00 +0000'
p47
saa.