(lp0
(lp1
(dp2
S'Stone0'
p3
(dp4
S'theme'
p5
S'BLUE'
p6
sS'radius'
p7
I77
sS'center'
p8
(I525
I402
tp9
ssa(dp10
S'Default Loaded'
p11
S'Mon, 03 Dec 2018 18:04:21 +0000'
p12
sa(dp13
S'reset '
p14
S'Mon, 03 Dec 2018 18:08:18 +0000'
p15
sa(dp16
S'Camera Start'
p17
S'Mon, 03 Dec 2018 18:08:20 +0000'
p18
saa.