(lp0
(lp1
(dp2
S'Stone0'
p3
(dp4
S'theme'
p5
S'BLUE'
p6
sS'radius'
p7
I52
sS'center'
p8
(I97
I516
tp9
ssa(dp10
S'Default Loaded'
p11
S'Thu, 13 Dec 2018 14:40:01 +0000'
p12
sa(dp13
S'reset '
p14
S'Thu, 13 Dec 2018 14:41:52 +0000'
p15
sa(dp16
S'Stone0'
p17
(dp18
g5
g6
sg7
I52
sg8
(I50
I502
tp19
ssa(dp20
S'Stone1'
p21
(dp22
g5
g6
sg7
I52
sg8
(I848
I494
tp23
ssa(dp24
g11
S'Thu, 13 Dec 2018 14:41:54 +0000'
p25
saa.