(lp0
(lp1
(dp2
S'Stone0'
p3
(dp4
S'theme'
p5
S'GREEN'
p6
sS'radius'
p7
I57
sS'center'
p8
(I855
I488
tp9
ssa(dp10
S'Stone1'
p11
(dp12
g5
S'BLUE'
p13
sg7
I52
sg8
(I473
I300
tp14
ssa(dp15
S'Stone2'
p16
(dp17
g5
S'RED'
p18
sg7
I57
sg8
(I182
I53
tp19
ssa(dp20
S'Default Loaded'
p21
S'Tue, 11 Dec 2018 13:06:06 +0000'
p22
sa(dp23
S'reset '
p24
S'Tue, 11 Dec 2018 13:08:06 +0000'
p25
sa(dp26
S'Stone0'
p27
(dp28
g5
g13
sg7
I52
sg8
(I456
I308
tp29
ssa(dp30
S'Stone1'
p31
(dp32
g5
g6
sg7
I58
sg8
(I122
I314
tp33
ssa(dp34
S'Stone2'
p35
(dp36
g5
g18
sg7
I60
sg8
(I785
I303
tp37
ssa(dp38
g21
S'Tue, 11 Dec 2018 13:08:08 +0000'
p39
sa(dp40
g24
S'Tue, 11 Dec 2018 13:11:45 +0000'
p41
sa(dp42
S'Stone0'
p43
(dp44
g5
g6
sg7
I58
sg8
(I52
I580
tp45
ssa(dp46
S'Stone1'
p47
(dp48
g5
g18
sg7
I60
sg8
(I505
I362
tp49
ssa(dp50
S'Stone2'
p51
(dp52
g5
g13
sg7
I52
sg8
(I853
I66
tp53
ssa(dp54
g21
S'Tue, 11 Dec 2018 13:11:47 +0000'
p55
sa(dp56
g24
S'Tue, 11 Dec 2018 13:13:30 +0000'
p57
sa(dp58
S'Stone0'
p59
(dp60
g5
g13
sg7
I52
sg8
(I62
I551
tp61
ssa(dp62
S'Stone1'
p63
(dp64
g5
g18
sg7
I51
sg8
(I862
I46
tp65
ssa(dp66
g21
S'Tue, 11 Dec 2018 13:13:31 +0000'
p67
sa(dp68
g24
S'Tue, 11 Dec 2018 13:14:08 +0000'
p69
sa(dp70
S'Stone0'
p71
(dp72
g5
g13
sg7
I76
sg8
(I524
I403
tp73
ssa(dp74
S'Default Loaded'
p75
S'Tue, 11 Dec 2018 13:14:18 +0000'
p76
sa(dp77
g24
S'Tue, 11 Dec 2018 13:16:21 +0000'
p78
sa(dp79
S'Stone0'
p80
(dp81
g5
g13
sg7
I52
sg8
(I43
I573
tp82
ssa(dp83
S'Stone1'
p84
(dp85
g5
g13
sg7
I49
sg8
(I915
I568
tp86
ssa(dp87
g21
S'Tue, 11 Dec 2018 13:17:05 +0000'
p88
sa(dp89
g24
S'Tue, 11 Dec 2018 13:17:24 +0000'
p90
saa.