(lp0
(lp1
(dp2
S'Camera Start'
p3
S'Fri, 07 Dec 2018 12:20:38 +0000'
p4
sa(dp5
S'Stone0 '
p6
(dp7
S'theme'
p8
S'GREEN'
p9
sS'radius'
p10
I62
sS'center'
p11
(I65
I336
tp12
ssa(dp13
S'Stone1 '
p14
(dp15
g8
S'RED'
p16
sg10
I52
sg11
(I291
I200
tp17
ssa(dp18
S'Stone2 '
p19
(dp20
g8
S'BLUE'
p21
sg10
I55
sg11
(I95
I94
tp22
ssa(dp23
S'load_callibration '
p24
S'Fri, 07 Dec 2018 12:21:37 +0000'
p25
sa(dp26
g3
S'Fri, 07 Dec 2018 12:23:50 +0000'
p27
sa(dp28
S'reset '
p29
S'Fri, 07 Dec 2018 12:23:50 +0000'
p30
sa(dp31
S'Stone0 '
p32
(dp33
g8
g21
sg10
I54
sg11
(I319
I302
tp34
ssa(dp35
S'Stone1 '
p36
(dp37
g8
g9
sg10
I61
sg11
(I241
I184
tp38
ssa(dp39
S'Stone2 '
p40
(dp41
g8
g16
sg10
I53
sg11
(I101
I87
tp42
ssa(dp43
g24
S'Fri, 07 Dec 2018 12:23:51 +0000'
p44
sa(dp45
g3
S'Fri, 07 Dec 2018 12:25:07 +0000'
p46
sa(dp47
g29
S'Fri, 07 Dec 2018 12:25:07 +0000'
p48
sa(dp49
S'Stone0'
p50
(dp51
g8
g9
sg10
I59
sg11
(I140
I495
tp52
ssa(dp53
S'Stone1'
p54
(dp55
g8
g21
sg10
I51
sg11
(I827
I109
tp56
ssa(dp57
S'Default Loaded'
p58
S'Fri, 07 Dec 2018 12:26:14 +0000'
p59
sa(dp60
g3
S'Fri, 07 Dec 2018 12:30:32 +0000'
p61
sa(dp62
g29
S'Fri, 07 Dec 2018 12:30:32 +0000'
p63
sa(dp64
g3
S'Fri, 07 Dec 2018 12:30:34 +0000'
p65
sa(dp66
S'Stone0 '
p67
(dp68
g8
g9
sg10
I55
sg11
(I190
I332
tp69
ssa(dp70
S'Stone1 '
p71
(dp72
g8
g21
sg10
I53
sg11
(I315
I183
tp73
ssa(dp74
S'Stone2 '
p75
(dp76
g8
g9
sg10
I55
sg11
(I221
I32
tp77
ssa(dp78
g24
S'Fri, 07 Dec 2018 12:30:36 +0000'
p79
saa.