(lp0
(lp1
(dp2
S'Camera Start'
p3
S'Mon, 03 Dec 2018 17:33:51 +0000'
p4
sa(dp5
S'load_callibration '
p6
S'Mon, 03 Dec 2018 17:34:20 +0000'
p7
sag5
a(dp8
S'Stone0 '
p9
(dp10
S'theme'
p11
S'BLUE'
p12
sS'radius'
p13
I54
sS'center'
p14
(I353
I350
tp15
ssa(dp16
S'Stone1 '
p17
(dp18
g11
S'GREEN'
p19
sg13
I45
sg14
(I342
I124
tp20
ssa(dp21
S'Stone2 '
p22
(dp23
g11
g19
sg13
I48
sg14
(I133
I85
tp24
ssa(dp25
S'Stone3 '
p26
(dp27
g11
S'RED'
p28
sg13
I54
sg14
(I246
I47
tp29
ssa(dp30
g6
S'Mon, 03 Dec 2018 17:34:44 +0000'
p31
sa(dp32
g6
S'Mon, 03 Dec 2018 17:36:18 +0000'
p33
sag32
a(dp34
g6
S'Mon, 03 Dec 2018 17:36:38 +0000'
p35
sag34
a(dp36
g3
S'Mon, 03 Dec 2018 17:36:53 +0000'
p37
sa(dp38
S'reset '
p39
S'Mon, 03 Dec 2018 17:36:53 +0000'
p40
sa(dp41
S'Stone0 '
p42
(dp43
g11
g28
sg13
I63
sg14
(I277
I349
tp44
ssa(dp45
S'Stone1 '
p46
(dp47
g11
g19
sg13
I61
sg14
(I69
I67
tp48
ssa(dp49
g6
S'Mon, 03 Dec 2018 17:36:54 +0000'
p50
sa(dp51
g3
S'Mon, 03 Dec 2018 17:41:29 +0000'
p52
sa(dp53
g39
S'Mon, 03 Dec 2018 17:41:29 +0000'
p54
sa(dp55
S'Stone0 '
p56
(dp57
g11
g19
sg13
I51
sg14
(I73
I361
tp58
ssa(dp59
S'Stone1 '
p60
(dp61
g11
g12
sg13
I58
sg14
(I189
I180
tp62
ssa(dp63
S'Stone2 '
p64
(dp65
g11
g28
sg13
I54
sg14
(I388
I47
tp66
ssa(dp67
g6
S'Mon, 03 Dec 2018 17:41:38 +0000'
p68
sa(dp69
S'Stone0'
p70
(dp71
g11
g19
sg13
I59
sg14
(I140
I495
tp72
ssa(dp73
S'Stone1'
p74
(dp75
g11
g12
sg13
I51
sg14
(I827
I109
tp76
ssa(dp77
S'Default Loaded'
p78
S'Mon, 03 Dec 2018 17:44:28 +0000'
p79
sa(dp80
g3
S'Mon, 03 Dec 2018 17:48:05 +0000'
p81
sa(dp82
g39
S'Mon, 03 Dec 2018 17:48:05 +0000'
p83
sa(dp84
S'Stone0 '
p85
(dp86
g11
g12
sg13
I41
sg14
(I110
I375
tp87
ssa(dp88
S'Stone1 '
p89
(dp90
g11
g12
sg13
I53
sg14
(I91
I275
tp91
ssa(dp92
S'Stone2 '
p93
(dp94
g11
g19
sg13
I69
sg14
(I314
I280
tp95
ssa(dp96
S'Stone3 '
p97
(dp98
g11
g19
sg13
I51
sg14
(I308
I113
tp99
ssa(dp100
S'Stone4 '
p101
(dp102
g11
g12
sg13
I52
sg14
(I63
I26
tp103
ssa(dp104
g6
S'Mon, 03 Dec 2018 17:48:07 +0000'
p105
saa.