(lp0
(lp1
(dp2
S'Stone0'
p3
(dp4
S'theme'
p5
S'GREEN'
p6
sS'radius'
p7
I57
sS'center'
p8
(I665
I487
tp9
ssa(dp10
S'Stone1'
p11
(dp12
g5
S'RED'
p13
sg7
I60
sg8
(I186
I261
tp14
ssa(dp15
S'Stone2'
p16
(dp17
g5
S'BLUE'
p18
sg7
I52
sg8
(I812
I146
tp19
ssa(dp20
S'Default Loaded'
p21
S'Mon, 03 Dec 2018 15:02:28 +0000'
p22
sa(dp23
S'reset '
p24
S'Mon, 03 Dec 2018 15:03:44 +0000'
p25
sa(dp26
S'Stone0'
p27
(dp28
g5
g13
sg7
I60
sg8
(I94
I595
tp29
ssa(dp30
S'Stone1'
p31
(dp32
g5
g6
sg7
I57
sg8
(I810
I565
tp33
ssa(dp34
S'Stone2'
p35
(dp36
g5
g13
sg7
I60
sg8
(I491
I267
tp37
ssa(dp38
S'Stone3'
p39
(dp40
g5
g18
sg7
I52
sg8
(I153
I111
tp41
ssa(dp42
g21
S'Mon, 03 Dec 2018 15:04:21 +0000'
p43
sa(dp44
g24
S'Mon, 03 Dec 2018 15:05:08 +0000'
p45
sa(dp46
S'Stone0'
p47
(dp48
g5
g13
sg7
I60
sg8
(I94
I595
tp49
ssa(dp50
S'Stone1'
p51
(dp52
g5
g6
sg7
I57
sg8
(I810
I565
tp53
ssa(dp54
S'Stone2'
p55
(dp56
g5
g13
sg7
I60
sg8
(I491
I267
tp57
ssa(dp58
S'Stone3'
p59
(dp60
g5
g18
sg7
I52
sg8
(I153
I111
tp61
ssa(dp62
g21
S'Mon, 03 Dec 2018 15:05:09 +0000'
p63
sa(dp64
g24
S'Mon, 03 Dec 2018 15:08:07 +0000'
p65
sa(dp66
S'Stone0'
p67
(dp68
g5
g18
sg7
I52
sg8
(I169
I508
tp69
ssa(dp70
S'Stone1'
p71
(dp72
g5
g18
sg7
I52
sg8
(I801
I507
tp73
ssa(dp74
S'Stone2'
p75
(dp76
g5
g6
sg7
I58
sg8
(I420
I141
tp77
ssa(dp78
S'Stone3'
p79
(dp80
g5
g13
sg7
I60
sg8
(I921
I121
tp81
ssa(dp82
g21
S'Mon, 03 Dec 2018 15:08:09 +0000'
p83
sa(dp84
g24
S'Mon, 03 Dec 2018 15:10:01 +0000'
p85
sa(dp86
S'Stone0'
p87
(dp88
g5
g18
sg7
I52
sg8
(I169
I508
tp89
ssa(dp90
S'Stone1'
p91
(dp92
g5
g13
sg7
I60
sg8
(I808
I496
tp93
ssa(dp94
S'Stone2'
p95
(dp96
g5
g6
sg7
I52
sg8
(I830
I91
tp97
ssa(dp98
S'Stone3'
p99
(dp100
g5
g13
sg7
I61
sg8
(I295
I68
tp101
ssa(dp102
g21
S'Mon, 03 Dec 2018 15:10:02 +0000'
p103
sa(dp104
S'Stone0'
p105
(dp106
g5
g6
sg7
I59
sg8
(I140
I495
tp107
ssa(dp108
S'Stone1'
p109
(dp110
g5
g18
sg7
I51
sg8
(I827
I109
tp111
ssa(dp112
S'Default Loaded'
p113
S'Mon, 03 Dec 2018 15:12:16 +0000'
p114
sa(dp115
g24
S'Mon, 03 Dec 2018 15:15:36 +0000'
p116
sa(dp117
S'Stone0'
p118
(dp119
g5
g18
sg7
I52
sg8
(I800
I572
tp120
ssa(dp121
S'Stone1'
p122
(dp123
g5
g6
sg7
I58
sg8
(I232
I520
tp124
ssa(dp125
S'Stone2'
p126
(dp127
g5
g18
sg7
I52
sg8
(I682
I331
tp128
ssa(dp129
S'Stone3'
p130
(dp131
g5
g6
sg7
I58
sg8
(I469
I230
tp132
ssa(dp133
S'Stone4'
p134
(dp135
g5
g18
sg7
I52
sg8
(I788
I98
tp136
ssa(dp137
S'Stone5'
p138
(dp139
g5
g13
sg7
I60
sg8
(I123
I96
tp140
ssa(dp141
g21
S'Mon, 03 Dec 2018 15:15:37 +0000'
p142
sa(dp143
g24
S'Mon, 03 Dec 2018 15:16:13 +0000'
p144
sa(dp145
S'Camera Start'
p146
S'Mon, 03 Dec 2018 15:16:16 +0000'
p147
saa.