(lp0
(lp1
(dp2
S'Stone0'
p3
(dp4
S'theme'
p5
S'BLUE'
p6
sS'radius'
p7
I52
sS'center'
p8
(I822
I203
tp9
ssa(dp10
S'Default Loaded'
p11
S'Mon, 03 Dec 2018 16:39:22 +0000'
p12
sa(dp13
S'reset '
p14
S'Mon, 03 Dec 2018 16:41:04 +0000'
p15
sa(dp16
S'Stone0'
p17
(dp18
g5
S'RED'
p19
sg7
I60
sg8
(I267
I452
tp20
ssa(dp21
S'Stone1'
p22
(dp23
g5
S'GREEN'
p24
sg7
I58
sg8
(I404
I128
tp25
ssa(dp26
g11
S'Mon, 03 Dec 2018 16:41:05 +0000'
p27
sa(dp28
g14
S'Mon, 03 Dec 2018 16:44:10 +0000'
p29
sa(dp30
S'Stone0'
p31
(dp32
g5
g19
sg7
I61
sg8
(I367
I462
tp33
ssa(dp34
S'Stone1'
p35
(dp36
g5
g24
sg7
I58
sg8
(I505
I234
tp37
ssa(dp38
g11
S'Mon, 03 Dec 2018 16:44:24 +0000'
p39
sa(dp40
g14
S'Mon, 03 Dec 2018 16:46:46 +0000'
p41
sa(dp42
S'Stone0'
p43
(dp44
g5
g24
sg7
I58
sg8
(I841
I592
tp45
ssa(dp46
S'Stone1'
p47
(dp48
g5
g6
sg7
I52
sg8
(I746
I314
tp49
ssa(dp50
g11
S'Mon, 03 Dec 2018 16:46:48 +0000'
p51
sa(dp52
S'Stone0'
p53
(dp54
g5
g6
sg7
I77
sg8
(I525
I402
tp55
ssa(dp56
S'Default Loaded'
p57
S'Mon, 03 Dec 2018 16:49:20 +0000'
p58
sa(dp59
g14
S'Mon, 03 Dec 2018 16:51:23 +0000'
p60
sa(dp61
S'Camera Start'
p62
S'Mon, 03 Dec 2018 16:51:25 +0000'
p63
saa.