(lp0
(lp1
(dp2
S'Camera Start'
p3
S'Tue, 04 Dec 2018 09:58:27 +0000'
p4
sa(dp5
S'Stone0 '
p6
(dp7
S'theme'
p8
S'RED'
p9
sS'radius'
p10
I55
sS'center'
p11
(I74
I323
tp12
ssa(dp13
S'Stone1 '
p14
(dp15
g8
S'BLUE'
p16
sg10
I50
sg11
(I364
I318
tp17
ssa(dp18
S'Stone2 '
p19
(dp20
g8
S'GREEN'
p21
sg10
I60
sg11
(I226
I207
tp22
ssa(dp23
S'Stone3 '
p24
(dp25
g8
g21
sg10
I46
sg11
(I64
I80
tp26
ssa(dp27
S'Stone4 '
p28
(dp29
g8
g16
sg10
I54
sg11
(I366
I87
tp30
ssa(dp31
S'load_callibration '
p32
S'Tue, 04 Dec 2018 09:58:33 +0000'
p33
sa(dp34
g3
S'Tue, 04 Dec 2018 10:00:24 +0000'
p35
sa(dp36
S'reset '
p37
S'Tue, 04 Dec 2018 10:00:24 +0000'
p38
sa(dp39
S'Stone0 '
p40
(dp41
g8
g21
sg10
I51
sg11
(I343
I215
tp42
ssa(dp43
S'Stone1 '
p44
(dp45
g8
g16
sg10
I46
sg11
(I64
I232
tp46
ssa(dp47
S'Stone2 '
p48
(dp49
g8
g9
sg10
I53
sg11
(I338
I72
tp50
ssa(dp51
g32
S'Tue, 04 Dec 2018 10:00:25 +0000'
p52
sa(dp53
g3
S'Tue, 04 Dec 2018 10:02:32 +0000'
p54
sa(dp55
g37
S'Tue, 04 Dec 2018 10:02:32 +0000'
p56
sa(dp57
S'Stone0'
p58
(dp59
g8
g16
sg10
I77
sg11
(I525
I402
tp60
ssa(dp61
S'Default Loaded'
p62
S'Tue, 04 Dec 2018 10:02:35 +0000'
p63
sa(dp64
g3
S'Tue, 04 Dec 2018 10:04:14 +0000'
p65
sa(dp66
g37
S'Tue, 04 Dec 2018 10:04:14 +0000'
p67
sa(dp68
S'Stone0 '
p69
(dp70
g8
g16
sg10
I52
sg11
(I69
I327
tp71
ssa(dp72
S'Stone1 '
p73
(dp74
g8
g21
sg10
I47
sg11
(I231
I153
tp75
ssa(dp76
S'Stone2 '
p77
(dp78
g8
g16
sg10
I56
sg11
(I378
I54
tp79
ssa(dp80
g32
S'Tue, 04 Dec 2018 10:04:19 +0000'
p81
saa.