(lp0
(lp1
(dp2
S'Stone0'
p3
(dp4
S'theme'
p5
S'GREEN'
p6
sS'radius'
p7
I59
sS'center'
p8
(I914
I447
tp9
ssa(dp10
S'Stone1'
p11
(dp12
g5
S'BLUE'
p13
sg7
I52
sg8
(I196
I397
tp14
ssa(dp15
S'Stone2'
p16
(dp17
g5
S'RED'
p18
sg7
I60
sg8
(I539
I135
tp19
ssa(dp20
S'Default Loaded'
p21
S'Thu, 13 Dec 2018 14:48:31 +0000'
p22
sa(dp23
S'reset '
p24
S'Thu, 13 Dec 2018 14:51:45 +0000'
p25
sa(dp26
S'Stone0'
p27
(dp28
g5
g18
sg7
I60
sg8
(I907
I586
tp29
ssa(dp30
S'Stone1'
p31
(dp32
g5
g13
sg7
I52
sg8
(I379
I305
tp33
ssa(dp34
S'Stone2'
p35
(dp36
g5
g18
sg7
I49
sg8
(I900
I41
tp37
ssa(dp38
S'Stone3'
p39
(dp40
g5
g6
sg7
I39
sg8
(I21
I33
tp41
ssa(dp42
g21
S'Thu, 13 Dec 2018 14:51:49 +0000'
p43
sa(dp44
g24
S'Thu, 13 Dec 2018 14:53:01 +0000'
p45
sa(dp46
S'Stone0'
p47
(dp48
g5
g13
sg7
I76
sg8
(I524
I403
tp49
ssa(dp50
S'Default Loaded'
p51
S'Thu, 13 Dec 2018 14:53:47 +0000'
p52
sa(dp53
g24
S'Thu, 13 Dec 2018 14:57:58 +0000'
p54
sa(dp55
S'Stone0'
p56
(dp57
g5
g13
sg7
I52
sg8
(I653
I556
tp58
ssa(dp59
g21
S'Thu, 13 Dec 2018 14:58:01 +0000'
p60
saa.