(lp0
(lp1
(dp2
S'Stone0'
p3
(dp4
S'theme'
p5
S'GREEN'
p6
sS'radius'
p7
I57
sS'center'
p8
(I848
I597
tp9
ssa(dp10
S'Stone1'
p11
(dp12
g5
g6
sg7
I59
sg8
(I825
I144
tp13
ssa(dp14
S'Stone2'
p15
(dp16
g5
S'RED'
p17
sg7
I60
sg8
(I98
I112
tp18
ssa(dp19
S'Default Loaded'
p20
S'Tue, 04 Dec 2018 13:03:50 +0000'
p21
sa(dp22
S'reset '
p23
S'Tue, 04 Dec 2018 13:05:56 +0000'
p24
sa(dp25
S'Stone0'
p26
(dp27
g5
g17
sg7
I60
sg8
(I863
I582
tp28
ssa(dp29
S'Stone1'
p30
(dp31
g5
S'BLUE'
p32
sg7
I52
sg8
(I499
I353
tp33
ssa(dp34
S'Stone2'
p35
(dp36
g5
g17
sg7
I60
sg8
(I104
I113
tp37
ssa(dp38
g20
S'Tue, 04 Dec 2018 13:05:59 +0000'
p39
sa(dp40
g23
S'Tue, 04 Dec 2018 13:07:56 +0000'
p41
sa(dp42
S'Stone0'
p43
(dp44
g5
g6
sg7
I59
sg8
(I880
I606
tp45
ssa(dp46
S'Stone1'
p47
(dp48
g5
g32
sg7
I52
sg8
(I510
I98
tp49
ssa(dp50
S'Stone2'
p51
(dp52
g5
g17
sg7
I60
sg8
(I863
I96
tp53
ssa(dp54
g20
S'Tue, 04 Dec 2018 13:09:08 +0000'
p55
sa(dp56
g23
S'Tue, 04 Dec 2018 13:11:04 +0000'
p57
sa(dp58
S'Stone0'
p59
(dp60
g5
g17
sg7
I60
sg8
(I864
I577
tp61
ssa(dp62
S'Stone1'
p63
(dp64
g5
g17
sg7
I60
sg8
(I123
I108
tp65
ssa(dp66
g20
S'Tue, 04 Dec 2018 13:11:07 +0000'
p67
sa(dp68
g23
S'Tue, 04 Dec 2018 13:12:41 +0000'
p69
sa(dp70
S'Camera Start'
p71
S'Tue, 04 Dec 2018 13:12:45 +0000'
p72
saa.