(lp0
(lp1
(dp2
S'Camera Start'
p3
S'Tue, 04 Dec 2018 09:38:15 +0000'
p4
sa(dp5
S'Stone0 '
p6
(dp7
S'theme'
p8
S'RED'
p9
sS'radius'
p10
I56
sS'center'
p11
(I253
I266
tp12
ssa(dp13
S'Stone1 '
p14
(dp15
g8
g9
sg10
I53
sg11
(I147
I261
tp16
ssa(dp17
S'Stone2 '
p18
(dp19
g8
g9
sg10
I53
sg11
(I253
I182
tp20
ssa(dp21
S'Stone3 '
p22
(dp23
g8
S'GREEN'
p24
sg10
I50
sg11
(I141
I55
tp25
ssa(dp26
S'Stone4 '
p27
(dp28
g8
g24
sg10
I59
sg11
(I288
I47
tp29
ssa(dp30
S'load_callibration '
p31
S'Tue, 04 Dec 2018 09:38:17 +0000'
p32
saa.