(lp0
(lp1
(dp2
S'Camera Start'
p3
S'Fri, 07 Dec 2018 12:14:48 +0000'
p4
sa(dp5
S'Stone0 '
p6
(dp7
S'theme'
p8
S'RED'
p9
sS'radius'
p10
I57
sS'center'
p11
(I161
I272
tp12
ssa(dp13
S'Stone1 '
p14
(dp15
g8
S'BLUE'
p16
sg10
I50
sg11
(I206
I104
tp17
ssa(dp18
S'load_callibration '
p19
S'Fri, 07 Dec 2018 12:14:53 +0000'
p20
sa(dp21
g19
S'Fri, 07 Dec 2018 12:16:31 +0000'
p22
sag21
a(dp23
g3
S'Fri, 07 Dec 2018 12:16:57 +0000'
p24
sa(dp25
S'reset '
p26
S'Fri, 07 Dec 2018 12:16:57 +0000'
p27
sa(dp28
S'Stone0 '
p29
(dp30
g8
g16
sg10
I53
sg11
(I110
I298
tp31
ssa(dp32
S'Stone1 '
p33
(dp34
g8
g9
sg10
I52
sg11
(I360
I276
tp35
ssa(dp36
S'Stone2 '
p37
(dp38
g8
S'GREEN'
p39
sg10
I44
sg11
(I241
I107
tp40
ssa(dp41
g19
S'Fri, 07 Dec 2018 12:17:00 +0000'
p42
saa.