(lp0
(lp1
(dp2
S'Stone0'
p3
(dp4
S'theme'
p5
S'GREEN'
p6
sS'radius'
p7
I59
sS'center'
p8
(I196
I272
tp9
ssa(dp10
S'Stone1'
p11
(dp12
g5
S'RED'
p13
sg7
I60
sg8
(I772
I248
tp14
ssa(dp15
S'Default Loaded'
p16
S'Tue, 04 Dec 2018 10:07:01 +0000'
p17
sa(dp18
S'reset '
p19
S'Tue, 04 Dec 2018 10:09:25 +0000'
p20
sa(dp21
S'Stone0'
p22
(dp23
g5
S'BLUE'
p24
sg7
I52
sg8
(I815
I516
tp25
ssa(dp26
S'Stone1'
p27
(dp28
g5
g13
sg7
I60
sg8
(I210
I506
tp29
ssa(dp30
S'Stone2'
p31
(dp32
g5
g24
sg7
I52
sg8
(I254
I228
tp33
ssa(dp34
S'Stone3'
p35
(dp36
g5
g6
sg7
I59
sg8
(I817
I224
tp37
ssa(dp38
g16
S'Tue, 04 Dec 2018 10:09:27 +0000'
p39
sa(dp40
g19
S'Tue, 04 Dec 2018 10:12:35 +0000'
p41
sa(dp42
S'Stone0'
p43
(dp44
g5
g6
sg7
I57
sg8
(I827
I577
tp45
ssa(dp46
S'Stone1'
p47
(dp48
g5
g13
sg7
I60
sg8
(I175
I472
tp49
ssa(dp50
S'Stone2'
p51
(dp52
g5
g6
sg7
I52
sg8
(I157
I151
tp53
ssa(dp54
S'Stone3'
p55
(dp56
g5
g13
sg7
I60
sg8
(I855
I126
tp57
ssa(dp58
g16
S'Tue, 04 Dec 2018 10:12:37 +0000'
p59
sa(dp60
g19
S'Tue, 04 Dec 2018 10:14:44 +0000'
p61
sa(dp62
S'Camera Start'
p63
S'Tue, 04 Dec 2018 10:14:49 +0000'
p64
saa.