(lp0
(lp1
(dp2
S'Camera Start'
p3
S'Tue, 04 Dec 2018 14:41:49 +0000'
p4
sa(dp5
S'Stone0 '
p6
(dp7
S'theme'
p8
S'RED'
p9
sS'radius'
p10
I88
sS'center'
p11
(I367
I328
tp12
ssa(dp13
S'load_callibration '
p14
S'Tue, 04 Dec 2018 14:42:15 +0000'
p15
sag13
a(dp16
g3
S'Tue, 04 Dec 2018 14:42:24 +0000'
p17
sa(dp18
S'reset '
p19
S'Tue, 04 Dec 2018 14:42:24 +0000'
p20
sa(dp21
S'Stone0 '
p22
(dp23
g8
S'GREEN'
p24
sg10
I46
sg11
(I360
I287
tp25
ssa(dp26
S'Stone1 '
p27
(dp28
g8
g9
sg10
I54
sg11
(I148
I244
tp29
ssa(dp30
S'Stone2 '
p31
(dp32
g8
S'BLUE'
p33
sg10
I54
sg11
(I348
I115
tp34
ssa(dp35
g14
S'Tue, 04 Dec 2018 14:42:38 +0000'
p36
sa(dp37
g3
S'Tue, 04 Dec 2018 14:44:38 +0000'
p38
sa(dp39
g19
S'Tue, 04 Dec 2018 14:44:38 +0000'
p40
sa(dp41
S'Stone0 '
p42
(dp43
g8
g9
sg10
I50
sg11
(I232
I319
tp44
ssa(dp45
S'Stone1 '
p46
(dp47
g8
g33
sg10
I73
sg11
(I386
I86
tp48
ssa(dp49
S'Stone2 '
p50
(dp51
g8
g9
sg10
I54
sg11
(I158
I35
tp52
ssa(dp53
g14
S'Tue, 04 Dec 2018 14:45:14 +0000'
p54
saa.