(lp0
(lp1
(dp2
S'Stone0'
p3
(dp4
S'theme'
p5
S'BLUE'
p6
sS'radius'
p7
I52
sS'center'
p8
(I324
I505
tp9
ssa(dp10
S'Stone1'
p11
(dp12
g5
S'GREEN'
p13
sg7
I58
sg8
(I587
I510
tp14
ssa(dp15
S'Stone2'
p16
(dp17
g5
S'RED'
p18
sg7
I60
sg8
(I387
I349
tp19
ssa(dp20
S'Stone3'
p21
(dp22
g5
g18
sg7
I60
sg8
(I684
I272
tp23
ssa(dp24
S'Stone4'
p25
(dp26
g5
g6
sg7
I52
sg8
(I431
I229
tp27
ssa(dp28
S'Default Loaded'
p29
S'Tue, 04 Dec 2018 12:16:18 +0000'
p30
sa(dp31
S'reset '
p32
S'Tue, 04 Dec 2018 12:17:40 +0000'
p33
sa(dp34
S'Stone0'
p35
(dp36
g5
g6
sg7
I77
sg8
(I525
I402
tp37
ssa(dp38
S'Default Loaded'
p39
S'Tue, 04 Dec 2018 12:18:38 +0000'
p40
sa(dp41
g32
S'Tue, 04 Dec 2018 12:22:46 +0000'
p42
sa(dp43
S'Camera Start'
p44
S'Tue, 04 Dec 2018 12:22:54 +0000'
p45
saa.