(lp0
(lp1
(dp2
S'Stone0'
p3
(dp4
S'theme'
p5
S'RED'
p6
sS'radius'
p7
I60
sS'center'
p8
(I233
I243
tp9
ssa(dp10
S'Stone1'
p11
(dp12
g5
S'GREEN'
p13
sg7
I58
sg8
(I832
I231
tp14
ssa(dp15
S'Default Loaded'
p16
S'Fri, 07 Dec 2018 14:17:44 +0000'
p17
sa(dp18
S'reset '
p19
S'Fri, 07 Dec 2018 14:20:42 +0000'
p20
sa(dp21
S'Stone0'
p22
(dp23
g5
S'BLUE'
p24
sg7
I52
sg8
(I900
I627
tp25
ssa(dp26
S'Stone1'
p27
(dp28
g5
g13
sg7
I58
sg8
(I241
I288
tp29
ssa(dp30
S'Stone2'
p31
(dp32
g5
g13
sg7
I57
sg8
(I355
I232
tp33
ssa(dp34
g16
S'Fri, 07 Dec 2018 14:20:45 +0000'
p35
sa(dp36
g19
S'Fri, 07 Dec 2018 14:25:37 +0000'
p37
sa(dp38
S'Stone0'
p39
(dp40
g5
g6
sg7
I60
sg8
(I656
I545
tp41
ssa(dp42
S'Stone1'
p43
(dp44
g5
g6
sg7
I62
sg8
(I471
I204
tp45
ssa(dp46
g16
S'Fri, 07 Dec 2018 14:25:39 +0000'
p47
saa.