(lp0
(lp1
(dp2
S'Camera Start'
p3
S'Tue, 04 Dec 2018 17:01:42 +0000'
p4
sa(dp5
S'Stone0 '
p6
(dp7
S'theme'
p8
S'GREEN'
p9
sS'radius'
p10
I62
sS'center'
p11
(I55
I335
tp12
ssa(dp13
S'Stone1 '
p14
(dp15
g8
S'BLUE'
p16
sg10
I50
sg11
(I400
I189
tp17
ssa(dp18
S'Stone2 '
p19
(dp20
g8
g16
sg10
I54
sg11
(I198
I176
tp21
ssa(dp22
S'Stone3 '
p23
(dp24
g8
S'RED'
p25
sg10
I54
sg11
(I54
I50
tp26
ssa(dp27
S'Stone4 '
p28
(dp29
g8
g25
sg10
I52
sg11
(I288
I29
tp30
ssa(dp31
S'load_callibration '
p32
S'Tue, 04 Dec 2018 17:01:47 +0000'
p33
sa(dp34
g32
S'Tue, 04 Dec 2018 17:03:08 +0000'
p35
sag34
a(dp36
g3
S'Tue, 04 Dec 2018 17:03:33 +0000'
p37
sa(dp38
S'reset '
p39
S'Tue, 04 Dec 2018 17:03:33 +0000'
p40
sa(dp41
S'Stone0 '
p42
(dp43
g8
g25
sg10
I59
sg11
(I59
I371
tp44
ssa(dp45
S'Stone1 '
p46
(dp47
g8
g16
sg10
I50
sg11
(I231
I343
tp48
ssa(dp49
S'Stone2 '
p50
(dp51
g8
g9
sg10
I54
sg11
(I318
I277
tp52
ssa(dp53
S'Stone3 '
p54
(dp55
g8
g25
sg10
I52
sg11
(I55
I232
tp56
ssa(dp57
S'Stone4 '
p58
(dp59
g8
g9
sg10
I46
sg11
(I280
I201
tp60
ssa(dp61
S'Stone5 '
p62
(dp63
g8
g16
sg10
I50
sg11
(I32
I152
tp64
ssa(dp65
S'Stone6 '
p66
(dp67
g8
g9
sg10
I42
sg11
(I378
I75
tp68
ssa(dp69
g32
S'Tue, 04 Dec 2018 17:04:13 +0000'
p70
sa(dp71
g3
S'Tue, 04 Dec 2018 17:07:57 +0000'
p72
sa(dp73
g39
S'Tue, 04 Dec 2018 17:07:57 +0000'
p74
sa(dp75
S'Stone0 '
p76
(dp77
g8
g9
sg10
I56
sg11
(I199
I356
tp78
ssa(dp79
S'Stone1 '
p80
(dp81
g8
g16
sg10
I45
sg11
(I400
I267
tp82
ssa(dp83
S'Stone2 '
p84
(dp85
g8
g16
sg10
I44
sg11
(I395
I165
tp86
ssa(dp87
S'Stone3 '
p88
(dp89
g8
g16
sg10
I54
sg11
(I102
I101
tp90
ssa(dp91
S'Stone4 '
p92
(dp93
g8
g25
sg10
I53
sg11
(I376
I40
tp94
ssa(dp95
S'Stone5 '
p96
(dp97
g8
g9
sg10
I45
sg11
(I253
I44
tp98
ssa(dp99
g32
S'Tue, 04 Dec 2018 17:07:58 +0000'
p100
sa(dp101
g3
S'Tue, 04 Dec 2018 17:10:06 +0000'
p102
sa(dp103
g39
S'Tue, 04 Dec 2018 17:10:06 +0000'
p104
sa(dp105
S'Stone0 '
p106
(dp107
g8
g9
sg10
I58
sg11
(I374
I339
tp108
ssa(dp109
S'Stone1 '
p110
(dp111
g8
g25
sg10
I57
sg11
(I76
I344
tp112
ssa(dp113
S'Stone2 '
p114
(dp115
g8
g9
sg10
I43
sg11
(I293
I279
tp116
ssa(dp117
S'Stone3 '
p118
(dp119
g8
g25
sg10
I54
sg11
(I379
I158
tp120
ssa(dp121
S'Stone4 '
p122
(dp123
g8
g16
sg10
I94
sg11
(I195
I171
tp124
ssa(dp125
S'Stone5 '
p126
(dp127
g8
g25
sg10
I46
sg11
(I80
I56
tp128
ssa(dp129
S'Stone6 '
p130
(dp131
g8
g25
sg10
I54
sg11
(I319
I55
tp132
ssa(dp133
g32
S'Tue, 04 Dec 2018 17:10:08 +0000'
p134
sa(dp135
g3
S'Tue, 04 Dec 2018 17:11:17 +0000'
p136
sa(dp137
g39
S'Tue, 04 Dec 2018 17:11:17 +0000'
p138
sa(dp139
S'Stone0'
p140
(dp141
g8
g9
sg10
I59
sg11
(I140
I495
tp142
ssa(dp143
S'Stone1'
p144
(dp145
g8
g16
sg10
I51
sg11
(I827
I109
tp146
ssa(dp147
S'Default Loaded'
p148
S'Tue, 04 Dec 2018 17:11:49 +0000'
p149
sa(dp150
g3
S'Tue, 04 Dec 2018 17:14:47 +0000'
p151
sa(dp152
g39
S'Tue, 04 Dec 2018 17:14:47 +0000'
p153
sa(dp154
S'Stone0 '
p155
(dp156
g8
g16
sg10
I54
sg11
(I249
I382
tp157
ssa(dp158
S'Stone1 '
p159
(dp160
g8
g9
sg10
I46
sg11
(I134
I240
tp161
ssa(dp162
S'Stone2 '
p163
(dp164
g8
g9
sg10
I45
sg11
(I40
I216
tp165
ssa(dp166
S'Stone3 '
p167
(dp168
g8
g9
sg10
I55
sg11
(I115
I150
tp169
ssa(dp170
S'Stone4 '
p171
(dp172
g8
g16
sg10
I52
sg11
(I391
I118
tp173
ssa(dp174
S'Stone5 '
p175
(dp176
g8
g16
sg10
I52
sg11
(I323
I41
tp177
ssa(dp178
g32
S'Tue, 04 Dec 2018 17:14:49 +0000'
p179
saa.