(lp0
(lp1
(dp2
S'Camera Start'
p3
S'Mon, 03 Dec 2018 09:50:18 +0000'
p4
sa(dp5
S'Stone0 '
p6
(dp7
S'theme'
p8
S'BLUE'
p9
sS'radius'
p10
I50
sS'center'
p11
(I110
I350
tp12
ssa(dp13
S'Stone1 '
p14
(dp15
g8
S'GREEN'
p16
sg10
I40
sg11
(I292
I283
tp17
ssa(dp18
S'Stone2 '
p19
(dp20
g8
g16
sg10
I52
sg11
(I296
I44
tp21
ssa(dp22
S'load_callibration '
p23
S'Mon, 03 Dec 2018 09:50:42 +0000'
p24
sag22
a(dp25
g3
S'Mon, 03 Dec 2018 09:50:53 +0000'
p26
sa(dp27
S'reset '
p28
S'Mon, 03 Dec 2018 09:50:53 +0000'
p29
sa(dp30
S'Stone0 '
p31
(dp32
g8
g9
sg10
I50
sg11
(I110
I350
tp33
ssa(dp34
S'Stone1 '
p35
(dp36
g8
g16
sg10
I43
sg11
(I292
I279
tp37
ssa(dp38
S'Stone2 '
p39
(dp40
g8
g16
sg10
I54
sg11
(I304
I65
tp41
ssa(dp42
g23
S'Mon, 03 Dec 2018 09:50:55 +0000'
p43
sa(dp44
g3
S'Mon, 03 Dec 2018 09:51:07 +0000'
p45
sa(dp46
g28
S'Mon, 03 Dec 2018 09:51:07 +0000'
p47
sa(dp48
S'Stone0 '
p49
(dp50
g8
g9
sg10
I50
sg11
(I110
I352
tp51
ssa(dp52
S'Stone1 '
p53
(dp54
g8
g16
sg10
I41
sg11
(I293
I281
tp55
ssa(dp56
S'Stone2 '
p57
(dp58
g8
g16
sg10
I49
sg11
(I320
I73
tp59
ssa(dp60
g23
S'Mon, 03 Dec 2018 09:51:10 +0000'
p61
sa(dp62
g3
S'Mon, 03 Dec 2018 09:53:30 +0000'
p63
sa(dp64
g28
S'Mon, 03 Dec 2018 09:53:30 +0000'
p65
sa(dp66
S'Stone0 '
p67
(dp68
g8
S'RED'
p69
sg10
I54
sg11
(I79
I80
tp70
ssa(dp71
g23
S'Mon, 03 Dec 2018 09:53:32 +0000'
p72
sa(dp73
g3
S'Mon, 03 Dec 2018 09:56:46 +0000'
p74
sa(dp75
g28
S'Mon, 03 Dec 2018 09:56:46 +0000'
p76
sa(dp77
S'Stone0 '
p78
(dp79
g8
g16
sg10
I58
sg11
(I294
I164
tp80
ssa(dp81
S'Stone1 '
p82
(dp83
g8
g69
sg10
I53
sg11
(I75
I100
tp84
ssa(dp85
g23
S'Mon, 03 Dec 2018 09:56:47 +0000'
p86
sa(dp87
g3
S'Mon, 03 Dec 2018 09:58:18 +0000'
p88
sa(dp89
g28
S'Mon, 03 Dec 2018 09:58:18 +0000'
p90
sa(dp91
S'Stone0 '
p92
(dp93
g8
g9
sg10
I53
sg11
(I375
I347
tp94
ssa(dp95
S'Stone1 '
p96
(dp97
g8
g16
sg10
I48
sg11
(I74
I215
tp98
ssa(dp99
g23
S'Mon, 03 Dec 2018 09:58:41 +0000'
p100
sa(dp101
S'Stone0'
p102
(dp103
g8
g9
sg10
I77
sg11
(I525
I402
tp104
ssa(dp105
S'Default Loaded'
p106
S'Mon, 03 Dec 2018 10:00:17 +0000'
p107
saa.