(lp0
(lp1
(dp2
S'Stone0'
p3
(dp4
S'theme'
p5
S'BLUE'
p6
sS'radius'
p7
I52
sS'center'
p8
(I108
I575
tp9
ssa(dp10
S'Stone1'
p11
(dp12
g5
S'RED'
p13
sg7
I60
sg8
(I624
I421
tp14
ssa(dp15
S'Stone2'
p16
(dp17
g5
S'GREEN'
p18
sg7
I60
sg8
(I292
I383
tp19
ssa(dp20
S'Stone3'
p21
(dp22
g5
g18
sg7
I59
sg8
(I210
I118
tp23
ssa(dp24
S'Default Loaded'
p25
S'Fri, 07 Dec 2018 12:34:59 +0000'
p26
sa(dp27
S'reset '
p28
S'Fri, 07 Dec 2018 12:37:50 +0000'
p29
sa(dp30
S'Stone0'
p31
(dp32
g5
g6
sg7
I52
sg8
(I476
I358
tp33
ssa(dp34
S'Stone1'
p35
(dp36
g5
g13
sg7
I60
sg8
(I107
I256
tp37
ssa(dp38
S'Stone2'
p39
(dp40
g5
g18
sg7
I57
sg8
(I708
I181
tp41
ssa(dp42
g25
S'Fri, 07 Dec 2018 12:37:53 +0000'
p43
sa(dp44
g28
S'Fri, 07 Dec 2018 12:41:45 +0000'
p45
sa(dp46
S'Stone0'
p47
(dp48
g5
g18
sg7
I58
sg8
(I231
I318
tp49
ssa(dp50
S'Stone1'
p51
(dp52
g5
g6
sg7
I52
sg8
(I650
I291
tp53
ssa(dp54
g25
S'Fri, 07 Dec 2018 12:41:47 +0000'
p55
sa(dp56
g28
S'Fri, 07 Dec 2018 12:43:24 +0000'
p57
sa(dp58
S'Stone0'
p59
(dp60
g5
g18
sg7
I58
sg8
(I568
I494
tp61
ssa(dp62
S'Stone1'
p63
(dp64
g5
g13
sg7
I62
sg8
(I479
I131
tp65
ssa(dp66
g25
S'Fri, 07 Dec 2018 12:43:29 +0000'
p67
sa(dp68
S'Stone0'
p69
(dp70
g5
g6
sg7
I76
sg8
(I524
I403
tp71
ssa(dp72
S'Default Loaded'
p73
S'Fri, 07 Dec 2018 12:45:41 +0000'
p74
sa(dp75
g28
S'Fri, 07 Dec 2018 12:48:27 +0000'
p76
sa(dp77
S'Stone0'
p78
(dp79
g5
g6
sg7
I52
sg8
(I813
I543
tp80
ssa(dp81
S'Stone1'
p82
(dp83
g5
g18
sg7
I60
sg8
(I86
I453
tp84
ssa(dp85
g25
S'Fri, 07 Dec 2018 12:48:30 +0000'
p86
sa(dp87
g28
S'Fri, 07 Dec 2018 12:48:46 +0000'
p88
sa(dp89
S'Stone0'
p90
(dp91
g5
g6
sg7
I52
sg8
(I247
I568
tp92
ssa(dp93
S'Stone1'
p94
(dp95
g5
g6
sg7
I52
sg8
(I813
I543
tp96
ssa(dp97
S'Stone2'
p98
(dp99
g5
g6
sg7
I52
sg8
(I351
I472
tp100
ssa(dp101
S'Stone3'
p102
(dp103
g5
g18
sg7
I60
sg8
(I86
I453
tp104
ssa(dp105
g25
S'Fri, 07 Dec 2018 12:48:48 +0000'
p106
saa.