(lp0
(lp1
(dp2
S'Stone0'
p3
(dp4
S'theme'
p5
S'BLUE'
p6
sS'radius'
p7
I52
sS'center'
p8
(I880
I540
tp9
ssa(dp10
S'Stone1'
p11
(dp12
g5
g6
sg7
I52
sg8
(I239
I194
tp13
ssa(dp14
S'Stone2'
p15
(dp16
g5
S'GREEN'
p17
sg7
I58
sg8
(I882
I200
tp18
ssa(dp19
S'Default Loaded'
p20
S'Fri, 07 Dec 2018 14:28:15 +0000'
p21
sa(dp22
S'Stone0'
p23
(dp24
g5
g6
sg7
I76
sg8
(I524
I403
tp25
ssa(dp26
S'Default Loaded'
p27
S'Fri, 07 Dec 2018 14:30:38 +0000'
p28
sa(dp29
S'reset '
p30
S'Fri, 07 Dec 2018 14:32:28 +0000'
p31
sa(dp32
S'Stone0'
p33
(dp34
g5
g6
sg7
I52
sg8
(I850
I493
tp35
ssa(dp36
S'Stone1'
p37
(dp38
g5
g6
sg7
I52
sg8
(I158
I228
tp39
ssa(dp40
g20
S'Fri, 07 Dec 2018 14:32:33 +0000'
p41
saa.