(lp0
(lp1
(dp2
S'Camera Start'
p3
S'Tue, 04 Dec 2018 09:31:27 +0000'
p4
sa(dp5
S'Stone0 '
p6
(dp7
S'theme'
p8
S'BLUE'
p9
sS'radius'
p10
I52
sS'center'
p11
(I250
I339
tp12
ssa(dp13
S'Stone1 '
p14
(dp15
g8
S'GREEN'
p16
sg10
I48
sg11
(I140
I198
tp17
ssa(dp18
S'Stone2 '
p19
(dp20
g8
S'RED'
p21
sg10
I55
sg11
(I234
I53
tp22
ssa(dp23
S'load_callibration '
p24
S'Tue, 04 Dec 2018 09:31:32 +0000'
p25
sa(dp26
g24
S'Tue, 04 Dec 2018 09:32:46 +0000'
p27
sag26
a(dp28
g3
S'Tue, 04 Dec 2018 09:33:35 +0000'
p29
sa(dp30
S'reset '
p31
S'Tue, 04 Dec 2018 09:33:35 +0000'
p32
sa(dp33
g3
S'Tue, 04 Dec 2018 09:33:38 +0000'
p34
sa(dp35
S'Stone0 '
p36
(dp37
g8
g9
sg10
I52
sg11
(I263
I357
tp38
ssa(dp39
S'Stone1 '
p40
(dp41
g8
g21
sg10
I54
sg11
(I384
I279
tp42
ssa(dp43
S'Stone2 '
p44
(dp45
g8
g16
sg10
I45
sg11
(I49
I207
tp46
ssa(dp47
S'Stone3 '
p48
(dp49
g8
g16
sg10
I59
sg11
(I345
I188
tp50
ssa(dp51
S'Stone4 '
p52
(dp53
g8
g21
sg10
I51
sg11
(I178
I80
tp54
ssa(dp55
g24
S'Tue, 04 Dec 2018 09:33:40 +0000'
p56
sa(dp57
S'Stone0 '
p58
(dp59
g8
g9
sg10
I52
sg11
(I259
I358
tp60
ssa(dp61
S'Stone1 '
p62
(dp63
g8
g9
sg10
I55
sg11
(I194
I307
tp64
ssa(dp65
S'Stone2 '
p66
(dp67
g8
g21
sg10
I55
sg11
(I383
I279
tp68
ssa(dp69
S'Stone3 '
p70
(dp71
g8
g16
sg10
I44
sg11
(I49
I205
tp72
ssa(dp73
S'Stone4 '
p74
(dp75
g8
g16
sg10
I60
sg11
(I345
I189
tp76
ssa(dp77
S'Stone5 '
p78
(dp79
g8
g21
sg10
I50
sg11
(I178
I80
tp80
ssa(dp81
g24
S'Tue, 04 Dec 2018 09:33:45 +0000'
p82
sag81
a(dp83
g3
S'Tue, 04 Dec 2018 09:33:47 +0000'
p84
sa(dp85
g31
S'Tue, 04 Dec 2018 09:33:47 +0000'
p86
sa(dp87
S'Stone0 '
p88
(dp89
g8
g9
sg10
I52
sg11
(I259
I358
tp90
ssa(dp91
S'Stone1 '
p92
(dp93
g8
g9
sg10
I55
sg11
(I196
I308
tp94
ssa(dp95
S'Stone2 '
p96
(dp97
g8
g21
sg10
I55
sg11
(I384
I279
tp98
ssa(dp99
S'Stone3 '
p100
(dp101
g8
g16
sg10
I45
sg11
(I49
I207
tp102
ssa(dp103
S'Stone4 '
p104
(dp105
g8
g16
sg10
I59
sg11
(I345
I188
tp106
ssa(dp107
S'Stone5 '
p108
(dp109
g8
g21
sg10
I51
sg11
(I178
I81
tp110
ssa(dp111
g24
S'Tue, 04 Dec 2018 09:33:48 +0000'
p112
sa(dp113
g3
S'Tue, 04 Dec 2018 09:35:52 +0000'
p114
sa(dp115
g31
S'Tue, 04 Dec 2018 09:35:52 +0000'
p116
sa(dp117
S'Stone0 '
p118
(dp119
g8
g9
sg10
I52
sg11
(I260
I358
tp120
ssa(dp121
S'Stone1 '
p122
(dp123
g8
g9
sg10
I56
sg11
(I199
I310
tp124
ssa(dp125
S'Stone2 '
p126
(dp127
g8
g21
sg10
I55
sg11
(I383
I280
tp128
ssa(dp129
S'Stone3 '
p130
(dp131
g8
g16
sg10
I40
sg11
(I43
I203
tp132
ssa(dp133
S'Stone4 '
p134
(dp135
g8
g16
sg10
I63
sg11
(I349
I186
tp136
ssa(dp137
S'Stone5 '
p138
(dp139
g8
g21
sg10
I53
sg11
(I177
I78
tp140
ssa(dp141
g24
S'Tue, 04 Dec 2018 09:35:57 +0000'
p142
sa(dp143
g3
S'Tue, 04 Dec 2018 09:37:22 +0000'
p144
sa(dp145
g31
S'Tue, 04 Dec 2018 09:37:22 +0000'
p146
saa.