(lp0
(lp1
(dp2
S'Stone0'
p3
(dp4
S'theme'
p5
S'BLUE'
p6
sS'radius'
p7
I52
sS'center'
p8
(I227
I505
tp9
ssa(dp10
S'Stone1'
p11
(dp12
g5
S'RED'
p13
sg7
I61
sg8
(I475
I339
tp14
ssa(dp15
S'Stone2'
p16
(dp17
g5
g6
sg7
I58
sg8
(I222
I139
tp18
ssa(dp19
S'Default Loaded'
p20
S'Tue, 04 Dec 2018 12:05:48 +0000'
p21
sa(dp22
S'reset '
p23
S'Tue, 04 Dec 2018 12:07:32 +0000'
p24
sa(dp25
S'Camera Start'
p26
S'Tue, 04 Dec 2018 12:07:35 +0000'
p27
saa.