(lp0
(lp1
(dp2
S'Stone0'
p3
(dp4
S'theme'
p5
S'GREEN'
p6
sS'radius'
p7
I59
sS'center'
p8
(I468
I556
tp9
ssa(dp10
S'Stone1'
p11
(dp12
g5
S'RED'
p13
sg7
I60
sg8
(I212
I236
tp14
ssa(dp15
S'Default Loaded'
p16
S'Tue, 04 Dec 2018 09:09:56 +0000'
p17
sa(dp18
S'reset '
p19
S'Tue, 04 Dec 2018 09:12:15 +0000'
p20
sa(dp21
S'Stone0'
p22
(dp23
g5
g6
sg7
I58
sg8
(I322
I602
tp24
ssa(dp25
S'Stone1'
p26
(dp27
g5
S'BLUE'
p28
sg7
I52
sg8
(I449
I165
tp29
ssa(dp30
g16
S'Tue, 04 Dec 2018 09:12:18 +0000'
p31
sa(dp32
g19
S'Tue, 04 Dec 2018 09:14:34 +0000'
p33
sa(dp34
S'Stone0'
p35
(dp36
g5
g6
sg7
I57
sg8
(I802
I559
tp37
ssa(dp38
S'Stone1'
p39
(dp40
g5
g13
sg7
I60
sg8
(I347
I398
tp41
ssa(dp42
S'Stone2'
p43
(dp44
g5
g13
sg7
I60
sg8
(I798
I341
tp45
ssa(dp46
S'Stone3'
p47
(dp48
g5
g6
sg7
I52
sg8
(I799
I103
tp49
ssa(dp50
g16
S'Tue, 04 Dec 2018 09:18:58 +0000'
p51
sa(dp52
g19
S'Tue, 04 Dec 2018 09:19:07 +0000'
p53
sa(dp54
S'Stone0'
p55
(dp56
g5
g6
sg7
I57
sg8
(I802
I559
tp57
ssa(dp58
S'Stone1'
p59
(dp60
g5
g13
sg7
I60
sg8
(I347
I398
tp61
ssa(dp62
S'Stone2'
p63
(dp64
g5
g13
sg7
I60
sg8
(I798
I341
tp65
ssa(dp66
S'Stone3'
p67
(dp68
g5
g6
sg7
I52
sg8
(I821
I107
tp69
ssa(dp70
g16
S'Tue, 04 Dec 2018 09:19:12 +0000'
p71
sa(dp72
g19
S'Tue, 04 Dec 2018 09:20:31 +0000'
p73
sa(dp74
S'Camera Start'
p75
S'Tue, 04 Dec 2018 09:20:34 +0000'
p76
saa.