(lp0
(lp1
(dp2
S'Stone0'
p3
(dp4
S'theme'
p5
S'BLUE'
p6
sS'radius'
p7
I52
sS'center'
p8
(I462
I608
tp9
ssa(dp10
S'Stone1'
p11
(dp12
g5
S'GREEN'
p13
sg7
I58
sg8
(I804
I397
tp14
ssa(dp15
S'Stone2'
p16
(dp17
g5
g13
sg7
I58
sg8
(I264
I343
tp18
ssa(dp19
S'Stone3'
p20
(dp21
g5
g6
sg7
I52
sg8
(I205
I117
tp22
ssa(dp23
S'Default Loaded'
p24
S'Tue, 04 Dec 2018 16:09:35 +0000'
p25
sa(dp26
S'reset '
p27
S'Tue, 04 Dec 2018 16:11:37 +0000'
p28
sa(dp29
S'Stone0'
p30
(dp31
g5
g13
sg7
I59
sg8
(I864
I510
tp32
ssa(dp33
S'Stone1'
p34
(dp35
g5
g6
sg7
I52
sg8
(I160
I368
tp36
ssa(dp37
S'Stone2'
p38
(dp39
g5
S'RED'
p40
sg7
I60
sg8
(I552
I332
tp41
ssa(dp42
S'Stone3'
p43
(dp44
g5
g6
sg7
I52
sg8
(I805
I229
tp45
ssa(dp46
g24
S'Tue, 04 Dec 2018 16:11:39 +0000'
p47
sa(dp48
g27
S'Tue, 04 Dec 2018 16:15:56 +0000'
p49
sa(dp50
S'Stone0'
p51
(dp52
g5
g6
sg7
I52
sg8
(I362
I552
tp53
ssa(dp54
S'Stone1'
p55
(dp56
g5
g6
sg7
I52
sg8
(I824
I537
tp57
ssa(dp58
S'Stone2'
p59
(dp60
g5
g13
sg7
I57
sg8
(I439
I399
tp61
ssa(dp62
S'Stone3'
p63
(dp64
g5
g6
sg7
I52
sg8
(I115
I269
tp65
ssa(dp66
S'Stone4'
p67
(dp68
g5
g13
sg7
I58
sg8
(I814
I95
tp69
ssa(dp70
g24
S'Tue, 04 Dec 2018 16:15:59 +0000'
p71
sa(dp72
g27
S'Tue, 04 Dec 2018 16:18:03 +0000'
p73
sa(dp74
S'Stone0'
p75
(dp76
g5
g40
sg7
I60
sg8
(I192
I478
tp77
ssa(dp78
S'Stone1'
p79
(dp80
g5
g6
sg7
I52
sg8
(I760
I462
tp81
ssa(dp82
S'Stone2'
p83
(dp84
g5
g6
sg7
I52
sg8
(I366
I342
tp85
ssa(dp86
S'Stone3'
p87
(dp88
g5
g40
sg7
I60
sg8
(I474
I309
tp89
ssa(dp90
S'Stone4'
p91
(dp92
g5
g40
sg7
I52
sg8
(I454
I90
tp93
ssa(dp94
g24
S'Tue, 04 Dec 2018 16:18:05 +0000'
p95
sa(dp96
S'Stone0'
p97
(dp98
g5
g13
sg7
I59
sg8
(I140
I495
tp99
ssa(dp100
S'Stone1'
p101
(dp102
g5
g6
sg7
I51
sg8
(I827
I109
tp103
ssa(dp104
S'Default Loaded'
p105
S'Tue, 04 Dec 2018 16:19:41 +0000'
p106
saa.