(lp0
(lp1
(dp2
S'Stone0'
p3
(dp4
S'theme'
p5
S'GREEN'
p6
sS'radius'
p7
I58
sS'center'
p8
(I946
I571
tp9
ssa(dp10
S'Stone1'
p11
(dp12
g5
g6
sg7
I58
sg8
(I293
I464
tp13
ssa(dp14
S'Stone2'
p15
(dp16
g5
S'RED'
p17
sg7
I61
sg8
(I669
I419
tp18
ssa(dp19
S'Stone3'
p20
(dp21
g5
g17
sg7
I61
sg8
(I461
I190
tp22
ssa(dp23
S'Stone4'
p24
(dp25
g5
S'BLUE'
p26
sg7
I52
sg8
(I102
I70
tp27
ssa(dp28
S'Default Loaded'
p29
S'Mon, 03 Dec 2018 16:12:53 +0000'
p30
sa(dp31
S'reset '
p32
S'Mon, 03 Dec 2018 16:15:25 +0000'
p33
sa(dp34
S'Stone0'
p35
(dp36
g5
g6
sg7
I58
sg8
(I594
I564
tp37
ssa(dp38
S'Stone1'
p39
(dp40
g5
g17
sg7
I61
sg8
(I111
I510
tp41
ssa(dp42
S'Stone2'
p43
(dp44
g5
g26
sg7
I52
sg8
(I823
I153
tp45
ssa(dp46
g29
S'Mon, 03 Dec 2018 16:15:28 +0000'
p47
sa(dp48
g32
S'Mon, 03 Dec 2018 16:19:55 +0000'
p49
sa(dp50
S'Stone0'
p51
(dp52
g5
g17
sg7
I60
sg8
(I906
I553
tp53
ssa(dp54
S'Stone1'
p55
(dp56
g5
g6
sg7
I57
sg8
(I598
I478
tp57
ssa(dp58
S'Stone2'
p59
(dp60
g5
g17
sg7
I60
sg8
(I223
I418
tp61
ssa(dp62
S'Stone3'
p63
(dp64
g5
g17
sg7
I60
sg8
(I695
I168
tp65
ssa(dp66
S'Stone4'
p67
(dp68
g5
g6
sg7
I52
sg8
(I896
I156
tp69
ssa(dp70
S'Stone5'
p71
(dp72
g5
g6
sg7
I59
sg8
(I86
I100
tp73
ssa(dp74
g29
S'Mon, 03 Dec 2018 16:19:57 +0000'
p75
sa(dp76
g32
S'Mon, 03 Dec 2018 16:21:49 +0000'
p77
sa(dp78
S'Stone0'
p79
(dp80
g5
g26
sg7
I77
sg8
(I525
I402
tp81
ssa(dp82
S'Default Loaded'
p83
S'Mon, 03 Dec 2018 16:22:20 +0000'
p84
sa(dp85
S'Stone0'
p86
(dp87
g5
g6
sg7
I59
sg8
(I140
I495
tp88
ssa(dp89
S'Stone1'
p90
(dp91
g5
g26
sg7
I51
sg8
(I827
I109
tp92
ssa(dp93
g83
S'Mon, 03 Dec 2018 16:22:22 +0000'
p94
sa(dp95
g32
S'Mon, 03 Dec 2018 16:29:51 +0000'
p96
sa(dp97
S'Camera Start'
p98
S'Mon, 03 Dec 2018 16:30:01 +0000'
p99
saa.