(lp0
(lp1
(dp2
S'Camera Start'
p3
S'Mon, 03 Dec 2018 15:17:42 +0000'
p4
sa(dp5
S'Stone0 '
p6
(dp7
S'theme'
p8
S'BLUE'
p9
sS'radius'
p10
I50
sS'center'
p11
(I318
I292
tp12
ssa(dp13
S'Stone1 '
p14
(dp15
g8
S'RED'
p16
sg10
I55
sg11
(I82
I183
tp17
ssa(dp18
S'Stone2 '
p19
(dp20
g8
S'GREEN'
p21
sg10
I48
sg11
(I381
I48
tp22
ssa(dp23
S'load_callibration '
p24
S'Mon, 03 Dec 2018 15:17:52 +0000'
p25
sa(dp26
S'Stone0 '
p27
(dp28
g8
g16
sg10
I58
sg11
(I55
I260
tp29
ssa(dp30
S'Stone1 '
p31
(dp32
g8
g21
sg10
I57
sg11
(I402
I194
tp33
ssa(dp34
S'Stone2 '
p35
(dp36
g8
g9
sg10
I54
sg11
(I233
I49
tp37
ssa(dp38
g24
S'Mon, 03 Dec 2018 15:19:31 +0000'
p39
sag38
a(dp40
S'Stone0 '
p41
(dp42
g8
g21
sg10
I45
sg11
(I313
I328
tp43
ssa(dp44
S'Stone1 '
p45
(dp46
g8
g16
sg10
I56
sg11
(I54
I263
tp47
ssa(dp48
S'Stone2 '
p49
(dp50
g8
g16
sg10
I53
sg11
(I23
I110
tp51
ssa(dp52
S'Stone3 '
p53
(dp54
g8
g9
sg10
I52
sg11
(I233
I51
tp55
ssa(dp56
g24
S'Mon, 03 Dec 2018 15:19:56 +0000'
p57
sag56
a(dp58
g3
S'Mon, 03 Dec 2018 15:21:58 +0000'
p59
sa(dp60
S'reset '
p61
S'Mon, 03 Dec 2018 15:21:58 +0000'
p62
sa(dp63
S'Stone0 '
p64
(dp65
g8
g9
sg10
I59
sg11
(I66
I274
tp66
ssa(dp67
S'Stone1 '
p68
(dp69
g8
g9
sg10
I56
sg11
(I356
I283
tp70
ssa(dp71
S'Stone2 '
p72
(dp73
g8
g16
sg10
I55
sg11
(I160
I102
tp74
ssa(dp75
S'Stone3 '
p76
(dp77
g8
g21
sg10
I52
sg11
(I380
I57
tp78
ssa(dp79
g24
S'Mon, 03 Dec 2018 15:22:45 +0000'
p80
sa(dp81
g3
S'Mon, 03 Dec 2018 15:23:54 +0000'
p82
sa(dp83
g61
S'Mon, 03 Dec 2018 15:23:54 +0000'
p84
sa(dp85
S'Stone0 '
p86
(dp87
g8
g16
sg10
I56
sg11
(I388
I344
tp88
ssa(dp89
S'Stone1 '
p90
(dp91
g8
g16
sg10
I53
sg11
(I96
I344
tp92
ssa(dp93
S'Stone2 '
p94
(dp95
g8
g9
sg10
I46
sg11
(I206
I304
tp96
ssa(dp97
S'Stone3 '
p98
(dp99
g8
g21
sg10
I45
sg11
(I41
I154
tp100
ssa(dp101
S'Stone4 '
p102
(dp103
g8
g16
sg10
I51
sg11
(I408
I46
tp104
ssa(dp105
S'Stone5 '
p106
(dp107
g8
g9
sg10
I55
sg11
(I173
I54
tp108
ssa(dp109
g24
S'Mon, 03 Dec 2018 15:24:47 +0000'
p110
sa(dp111
S'Stone0'
p112
(dp113
g8
g9
sg10
I77
sg11
(I525
I402
tp114
ssa(dp115
S'Default Loaded'
p116
S'Mon, 03 Dec 2018 15:27:08 +0000'
p117
sa(dp118
g3
S'Mon, 03 Dec 2018 15:30:13 +0000'
p119
sa(dp120
g61
S'Mon, 03 Dec 2018 15:30:13 +0000'
p121
sa(dp122
S'Stone0 '
p123
(dp124
g8
g9
sg10
I49
sg11
(I125
I342
tp125
ssa(dp126
S'Stone1 '
p127
(dp128
g8
g9
sg10
I53
sg11
(I414
I152
tp129
ssa(dp130
g24
S'Mon, 03 Dec 2018 15:30:15 +0000'
p131
saa.