(lp0
(lp1
(dp2
S'Stone0'
p3
(dp4
S'theme'
p5
S'BLUE'
p6
sS'radius'
p7
I76
sS'center'
p8
(I524
I403
tp9
ssa(dp10
S'Default Loaded'
p11
S'Tue, 04 Dec 2018 13:13:17 +0000'
p12
sa(dp13
S'reset '
p14
S'Tue, 04 Dec 2018 13:17:16 +0000'
p15
sa(dp16
S'Camera Start'
p17
S'Tue, 04 Dec 2018 13:17:18 +0000'
p18
saa.