(lp0
(lp1
(dp2
S'Camera Start'
p3
S'Mon, 03 Dec 2018 16:52:25 +0000'
p4
sa(dp5
S'load_callibration '
p6
S'Mon, 03 Dec 2018 16:52:40 +0000'
p7
sag5
a(dp8
g3
S'Mon, 03 Dec 2018 16:52:55 +0000'
p9
sa(dp10
S'Stone0 '
p11
(dp12
S'theme'
p13
S'BLUE'
p14
sS'radius'
p15
I48
sS'center'
p16
(I371
I271
tp17
ssa(dp18
S'Stone1 '
p19
(dp20
g13
S'RED'
p21
sg15
I53
sg16
(I201
I121
tp22
ssa(dp23
g6
S'Mon, 03 Dec 2018 16:52:57 +0000'
p24
sa(dp25
g3
S'Mon, 03 Dec 2018 16:54:58 +0000'
p26
sa(dp27
S'reset '
p28
S'Mon, 03 Dec 2018 16:54:58 +0000'
p29
sa(dp30
g3
S'Mon, 03 Dec 2018 16:55:02 +0000'
p31
sa(dp32
S'Stone0 '
p33
(dp34
g13
S'GREEN'
p35
sg15
I43
sg16
(I108
I269
tp36
ssa(dp37
S'Stone1 '
p38
(dp39
g13
g14
sg15
I55
sg16
(I323
I134
tp40
ssa(dp41
g6
S'Mon, 03 Dec 2018 16:55:16 +0000'
p42
sa(dp43
g3
S'Mon, 03 Dec 2018 16:57:15 +0000'
p44
sa(dp45
g28
S'Mon, 03 Dec 2018 16:57:15 +0000'
p46
sa(dp47
S'Stone0 '
p48
(dp49
g13
g21
sg15
I52
sg16
(I402
I129
tp50
ssa(dp51
g6
S'Mon, 03 Dec 2018 16:58:59 +0000'
p52
sa(dp53
g3
S'Mon, 03 Dec 2018 16:59:09 +0000'
p54
sa(dp55
g28
S'Mon, 03 Dec 2018 16:59:09 +0000'
p56
sa(dp57
S'Stone0 '
p58
(dp59
g13
g35
sg15
I47
sg16
(I152
I334
tp60
ssa(dp61
S'Stone1 '
p62
(dp63
g13
g21
sg15
I53
sg16
(I399
I129
tp64
ssa(dp65
g6
S'Mon, 03 Dec 2018 16:59:11 +0000'
p66
sa(dp67
g3
S'Mon, 03 Dec 2018 17:01:10 +0000'
p68
sa(dp69
g28
S'Mon, 03 Dec 2018 17:01:10 +0000'
p70
sa(dp71
S'Stone0 '
p72
(dp73
g13
g14
sg15
I51
sg16
(I37
I45
tp74
ssa(dp75
g6
S'Mon, 03 Dec 2018 17:01:19 +0000'
p76
sa(dp77
g3
S'Mon, 03 Dec 2018 17:01:31 +0000'
p78
sa(dp79
g28
S'Mon, 03 Dec 2018 17:01:31 +0000'
p80
sa(dp81
S'Stone0 '
p82
(dp83
g13
g35
sg15
I46
sg16
(I397
I350
tp84
ssa(dp85
S'Stone1 '
p86
(dp87
g13
g14
sg15
I52
sg16
(I35
I42
tp88
ssa(dp89
g6
S'Mon, 03 Dec 2018 17:01:33 +0000'
p90
sa(dp91
S'Stone0'
p92
(dp93
g13
g35
sg15
I59
sg16
(I140
I495
tp94
ssa(dp95
S'Stone1'
p96
(dp97
g13
g14
sg15
I51
sg16
(I827
I109
tp98
ssa(dp99
S'Default Loaded'
p100
S'Mon, 03 Dec 2018 17:03:06 +0000'
p101
sa(dp102
g3
S'Mon, 03 Dec 2018 17:05:26 +0000'
p103
sa(dp104
g28
S'Mon, 03 Dec 2018 17:05:26 +0000'
p105
sa(dp106
S'Stone0 '
p107
(dp108
g13
g35
sg15
I47
sg16
(I75
I353
tp109
ssa(dp110
S'Stone1 '
p111
(dp112
g13
g14
sg15
I52
sg16
(I389
I339
tp113
ssa(dp114
S'Stone2 '
p115
(dp116
g13
g14
sg15
I55
sg16
(I391
I40
tp117
ssa(dp118
g6
S'Mon, 03 Dec 2018 17:05:29 +0000'
p119
saa.