(lp0
(lp1
(dp2
S'Camera Start'
p3
S'Mon, 03 Dec 2018 15:54:08 +0000'
p4
sa(dp5
S'Stone0 '
p6
(dp7
S'theme'
p8
S'GREEN'
p9
sS'radius'
p10
I43
sS'center'
p11
(I415
I353
tp12
ssa(dp13
S'Stone1 '
p14
(dp15
g8
S'RED'
p16
sg10
I55
sg11
(I122
I255
tp17
ssa(dp18
S'Stone2 '
p19
(dp20
g8
g9
sg10
I54
sg11
(I290
I38
tp21
ssa(dp22
S'load_callibration '
p23
S'Mon, 03 Dec 2018 15:54:44 +0000'
p24
sag22
a(dp25
S'Stone0 '
p26
(dp27
g8
g16
sg10
I68
sg11
(I254
I392
tp28
ssa(dp29
g23
S'Mon, 03 Dec 2018 15:56:02 +0000'
p30
sag29
a(dp31
S'Stone0 '
p32
(dp33
g8
g16
sg10
I61
sg11
(I282
I331
tp34
ssa(dp35
S'Stone1 '
p36
(dp37
g8
S'BLUE'
p38
sg10
I45
sg11
(I405
I338
tp39
ssa(dp40
S'Stone2 '
p41
(dp42
g8
g38
sg10
I50
sg11
(I240
I194
tp43
ssa(dp44
S'Stone3 '
p45
(dp46
g8
g9
sg10
I55
sg11
(I353
I43
tp47
ssa(dp48
g23
S'Mon, 03 Dec 2018 15:56:26 +0000'
p49
sag48
a(dp50
g3
S'Mon, 03 Dec 2018 15:59:28 +0000'
p51
sa(dp52
S'reset '
p53
S'Mon, 03 Dec 2018 15:59:28 +0000'
p54
sa(dp55
S'Stone0 '
p56
(dp57
g8
g9
sg10
I43
sg11
(I39
I218
tp58
ssa(dp59
S'Stone1 '
p60
(dp61
g8
g9
sg10
I55
sg11
(I383
I215
tp62
ssa(dp63
S'Stone2 '
p64
(dp65
g8
g16
sg10
I52
sg11
(I362
I89
tp66
ssa(dp67
S'Stone3 '
p68
(dp69
g8
g9
sg10
I52
sg11
(I63
I74
tp70
ssa(dp71
g23
S'Mon, 03 Dec 2018 16:00:15 +0000'
p72
sa(dp73
g3
S'Mon, 03 Dec 2018 16:00:27 +0000'
p74
sa(dp75
g53
S'Mon, 03 Dec 2018 16:00:27 +0000'
p76
sa(dp77
S'Stone0 '
p78
(dp79
g8
g38
sg10
I53
sg11
(I199
I362
tp80
ssa(dp81
S'Stone1 '
p82
(dp83
g8
g16
sg10
I61
sg11
(I324
I319
tp84
ssa(dp85
S'Stone2 '
p86
(dp87
g8
g9
sg10
I45
sg11
(I43
I215
tp88
ssa(dp89
S'Stone3 '
p90
(dp91
g8
g9
sg10
I56
sg11
(I384
I216
tp92
ssa(dp93
S'Stone4 '
p94
(dp95
g8
g16
sg10
I52
sg11
(I363
I90
tp96
ssa(dp97
S'Stone5 '
p98
(dp99
g8
g16
sg10
I53
sg11
(I82
I80
tp100
ssa(dp101
g23
S'Mon, 03 Dec 2018 16:00:36 +0000'
p102
sa(dp103
g3
S'Mon, 03 Dec 2018 16:01:56 +0000'
p104
sa(dp105
g53
S'Mon, 03 Dec 2018 16:01:56 +0000'
p106
sa(dp107
S'Stone0 '
p108
(dp109
g8
g16
sg10
I55
sg11
(I258
I296
tp110
ssa(dp111
S'Stone1 '
p112
(dp113
g8
g9
sg10
I55
sg11
(I90
I231
tp114
ssa(dp115
S'Stone2 '
p116
(dp117
g8
g9
sg10
I43
sg11
(I390
I128
tp118
ssa(dp119
S'Stone3 '
p120
(dp121
g8
g16
sg10
I56
sg11
(I263
I73
tp122
ssa(dp123
g23
S'Mon, 03 Dec 2018 16:03:02 +0000'
p124
sa(dp125
g3
S'Mon, 03 Dec 2018 16:04:13 +0000'
p126
sa(dp127
g53
S'Mon, 03 Dec 2018 16:04:13 +0000'
p128
sa(dp129
S'Stone0'
p130
(dp131
g8
g38
sg10
I77
sg11
(I525
I402
tp132
ssa(dp133
S'Default Loaded'
p134
S'Mon, 03 Dec 2018 16:04:58 +0000'
p135
sa(dp136
g3
S'Mon, 03 Dec 2018 16:09:33 +0000'
p137
sa(dp138
g53
S'Mon, 03 Dec 2018 16:09:33 +0000'
p139
sa(dp140
S'Stone0 '
p141
(dp142
g8
g38
sg10
I55
sg11
(I156
I309
tp143
ssa(dp144
S'Stone1 '
p145
(dp146
g8
g38
sg10
I48
sg11
(I415
I121
tp147
ssa(dp148
g23
S'Mon, 03 Dec 2018 16:09:40 +0000'
p149
saa.