(lp0
(lp1
(dp2
S'Stone0'
p3
(dp4
S'theme'
p5
S'GREEN'
p6
sS'radius'
p7
I58
sS'center'
p8
(I381
I418
tp9
ssa(dp10
S'Stone1'
p11
(dp12
g5
S'RED'
p13
sg7
I60
sg8
(I771
I195
tp14
ssa(dp15
S'Default Loaded'
p16
S'Tue, 04 Dec 2018 14:24:20 +0000'
p17
sa(dp18
S'reset '
p19
S'Tue, 04 Dec 2018 14:26:51 +0000'
p20
sa(dp21
S'Stone0'
p22
(dp23
g5
g6
sg7
I58
sg8
(I80
I607
tp24
ssa(dp25
S'Stone1'
p26
(dp27
g5
S'BLUE'
p28
sg7
I52
sg8
(I617
I393
tp29
ssa(dp30
S'Stone2'
p31
(dp32
g5
g13
sg7
I60
sg8
(I891
I217
tp33
ssa(dp34
S'Stone3'
p35
(dp36
g5
g28
sg7
I52
sg8
(I316
I54
tp37
ssa(dp38
g16
S'Tue, 04 Dec 2018 14:26:54 +0000'
p39
sa(dp40
g19
S'Tue, 04 Dec 2018 14:32:21 +0000'
p41
sa(dp42
S'Stone0'
p43
(dp44
g5
g28
sg7
I52
sg8
(I787
I458
tp45
ssa(dp46
S'Stone1'
p47
(dp48
g5
g13
sg7
I60
sg8
(I230
I453
tp49
ssa(dp50
S'Stone2'
p51
(dp52
g5
g6
sg7
I59
sg8
(I327
I230
tp53
ssa(dp54
S'Stone3'
p55
(dp56
g5
g28
sg7
I52
sg8
(I608
I51
tp57
ssa(dp58
g16
S'Tue, 04 Dec 2018 14:32:24 +0000'
p59
sa(dp60
g19
S'Tue, 04 Dec 2018 14:34:01 +0000'
p61
sa(dp62
S'Stone0'
p63
(dp64
g5
g13
sg7
I60
sg8
(I727
I409
tp65
ssa(dp66
S'Stone1'
p67
(dp68
g5
g28
sg7
I52
sg8
(I406
I366
tp69
ssa(dp70
S'Stone2'
p71
(dp72
g5
g28
sg7
I52
sg8
(I764
I124
tp73
ssa(dp74
S'Stone3'
p75
(dp76
g5
g6
sg7
I59
sg8
(I415
I116
tp77
ssa(dp78
g16
S'Tue, 04 Dec 2018 14:34:54 +0000'
p79
sa(dp80
S'Stone0'
p81
(dp82
g5
g28
sg7
I76
sg8
(I524
I403
tp83
ssa(dp84
S'Default Loaded'
p85
S'Tue, 04 Dec 2018 14:36:21 +0000'
p86
sa(dp87
S'Stone0'
p88
(dp89
g5
g6
sg7
I59
sg8
(I140
I495
tp90
ssa(dp91
S'Stone1'
p92
(dp93
g5
g28
sg7
I51
sg8
(I827
I109
tp94
ssa(dp95
g85
S'Tue, 04 Dec 2018 14:36:24 +0000'
p96
sa(dp97
g19
S'Tue, 04 Dec 2018 14:39:26 +0000'
p98
sa(dp99
S'Camera Start'
p100
S'Tue, 04 Dec 2018 14:39:29 +0000'
p101
sa(dp102
S'Stone0'
p103
(dp104
g5
g28
sg7
I52
sg8
(I887
I550
tp105
ssa(dp106
S'Stone1'
p107
(dp108
g5
g6
sg7
I57
sg8
(I148
I449
tp109
ssa(dp110
S'Stone2'
p111
(dp112
g5
g28
sg7
I52
sg8
(I870
I196
tp113
ssa(dp114
S'Stone3'
p115
(dp116
g5
g6
sg7
I58
sg8
(I213
I149
tp117
ssa(dp118
g16
S'Tue, 04 Dec 2018 14:39:37 +0000'
p119
saa.