(lp0
(lp1
(dp2
S'Stone0'
p3
(dp4
S'theme'
p5
S'GREEN'
p6
sS'radius'
p7
I57
sS'center'
p8
(I411
I469
tp9
ssa(dp10
S'Stone1'
p11
(dp12
g5
g6
sg7
I58
sg8
(I772
I379
tp13
ssa(dp14
S'Stone2'
p15
(dp16
g5
S'RED'
p17
sg7
I60
sg8
(I490
I142
tp18
ssa(dp19
S'Default Loaded'
p20
S'Tue, 04 Dec 2018 10:15:15 +0000'
p21
sa(dp22
S'reset '
p23
S'Tue, 04 Dec 2018 10:16:36 +0000'
p24
sa(dp25
S'Stone0'
p26
(dp27
g5
g6
sg7
I59
sg8
(I140
I495
tp28
ssa(dp29
S'Stone1'
p30
(dp31
g5
S'BLUE'
p32
sg7
I51
sg8
(I827
I109
tp33
ssa(dp34
S'Default Loaded'
p35
S'Tue, 04 Dec 2018 10:16:45 +0000'
p36
sa(dp37
g23
S'Tue, 04 Dec 2018 10:20:53 +0000'
p38
sa(dp39
S'Camera Start'
p40
S'Tue, 04 Dec 2018 10:20:58 +0000'
p41
saa.