(lp0
(lp1
(dp2
S'Stone0'
p3
(dp4
S'theme'
p5
S'BLUE'
p6
sS'radius'
p7
I52
sS'center'
p8
(I370
I642
tp9
ssa(dp10
S'Stone1'
p11
(dp12
g5
g6
sg7
I52
sg8
(I519
I640
tp13
ssa(dp14
S'Stone2'
p15
(dp16
g5
g6
sg7
I52
sg8
(I641
I639
tp17
ssa(dp18
S'Stone3'
p19
(dp20
g5
S'GREEN'
p21
sg7
I60
sg8
(I344
I223
tp22
ssa(dp23
S'Stone4'
p24
(dp25
g5
S'RED'
p26
sg7
I61
sg8
(I685
I223
tp27
ssa(dp28
S'Stone5'
p29
(dp30
g5
g21
sg7
I58
sg8
(I219
I77
tp31
ssa(dp32
S'Stone6'
p33
(dp34
g5
g21
sg7
I58
sg8
(I829
I74
tp35
ssa(dp36
S'Default Loaded'
p37
S'Mon, 03 Dec 2018 17:52:18 +0000'
p38
sa(dp39
S'reset '
p40
S'Mon, 03 Dec 2018 17:54:38 +0000'
p41
sa(dp42
S'Stone0'
p43
(dp44
g5
g26
sg7
I60
sg8
(I362
I588
tp45
ssa(dp46
S'Stone1'
p47
(dp48
g5
g6
sg7
I52
sg8
(I812
I563
tp49
ssa(dp50
S'Stone2'
p51
(dp52
g5
g21
sg7
I58
sg8
(I879
I413
tp53
ssa(dp54
S'Stone3'
p55
(dp56
g5
g6
sg7
I52
sg8
(I818
I302
tp57
ssa(dp58
S'Stone4'
p59
(dp60
g5
g26
sg7
I60
sg8
(I306
I253
tp61
ssa(dp62
S'Stone5'
p63
(dp64
g5
g6
sg7
I52
sg8
(I868
I173
tp65
ssa(dp66
S'Stone6'
p67
(dp68
g5
g21
sg7
I59
sg8
(I456
I118
tp69
ssa(dp70
S'Stone7'
p71
(dp72
g5
g21
sg7
I58
sg8
(I207
I109
tp73
ssa(dp74
g37
S'Mon, 03 Dec 2018 17:54:41 +0000'
p75
sa(dp76
g40
S'Mon, 03 Dec 2018 18:00:13 +0000'
p77
sa(dp78
S'Stone0'
p79
(dp80
g5
g21
sg7
I57
sg8
(I699
I257
tp81
ssa(dp82
S'Stone1'
p83
(dp84
g5
g26
sg7
I62
sg8
(I215
I227
tp85
ssa(dp86
S'Stone2'
p87
(dp88
g5
g26
sg7
I60
sg8
(I92
I133
tp89
ssa(dp90
g37
S'Mon, 03 Dec 2018 18:00:14 +0000'
p91
sa(dp92
g40
S'Mon, 03 Dec 2018 18:01:33 +0000'
p93
sa(dp94
S'Stone0'
p95
(dp96
g5
g21
sg7
I58
sg8
(I277
I566
tp97
ssa(dp98
S'Stone1'
p99
(dp100
g5
g21
sg7
I59
sg8
(I740
I564
tp101
ssa(dp102
S'Stone2'
p103
(dp104
g5
g26
sg7
I60
sg8
(I722
I94
tp105
ssa(dp106
S'Stone3'
p107
(dp108
g5
g26
sg7
I60
sg8
(I283
I91
tp109
ssa(dp110
g37
S'Mon, 03 Dec 2018 18:02:13 +0000'
p111
sa(dp112
g40
S'Mon, 03 Dec 2018 18:03:42 +0000'
p113
sa(dp114
S'Camera Start'
p115
S'Mon, 03 Dec 2018 18:03:45 +0000'
p116
saa.