(lp0
(lp1
(dp2
S'Stone0'
p3
(dp4
S'theme'
p5
S'GREEN'
p6
sS'radius'
p7
I58
sS'center'
p8
(I881
I347
tp9
ssa(dp10
S'Stone1'
p11
(dp12
g5
S'RED'
p13
sg7
I60
sg8
(I465
I136
tp14
ssa(dp15
S'Default Loaded'
p16
S'Tue, 04 Dec 2018 16:44:33 +0000'
p17
sa(dp18
S'reset '
p19
S'Tue, 04 Dec 2018 16:46:28 +0000'
p20
sa(dp21
S'Stone0'
p22
(dp23
g5
g6
sg7
I59
sg8
(I590
I560
tp24
ssa(dp25
S'Stone1'
p26
(dp27
g5
S'BLUE'
p28
sg7
I52
sg8
(I287
I314
tp29
ssa(dp30
S'Stone2'
p31
(dp32
g5
g13
sg7
I61
sg8
(I661
I100
tp33
ssa(dp34
g16
S'Tue, 04 Dec 2018 16:46:29 +0000'
p35
sa(dp36
g19
S'Tue, 04 Dec 2018 16:51:13 +0000'
p37
sa(dp38
S'Stone0'
p39
(dp40
g5
g28
sg7
I52
sg8
(I300
I441
tp41
ssa(dp42
S'Stone1'
p43
(dp44
g5
g13
sg7
I60
sg8
(I823
I367
tp45
ssa(dp46
S'Stone2'
p47
(dp48
g5
g6
sg7
I58
sg8
(I467
I172
tp49
ssa(dp50
g16
S'Tue, 04 Dec 2018 16:51:15 +0000'
p51
sa(dp52
g19
S'Tue, 04 Dec 2018 16:53:18 +0000'
p53
sa(dp54
S'Stone0'
p55
(dp56
g5
g13
sg7
I60
sg8
(I678
I589
tp57
ssa(dp58
S'Stone1'
p59
(dp60
g5
g6
sg7
I58
sg8
(I182
I555
tp61
ssa(dp62
S'Stone2'
p63
(dp64
g5
g13
sg7
I60
sg8
(I673
I395
tp65
ssa(dp66
S'Stone3'
p67
(dp68
g5
g28
sg7
I52
sg8
(I920
I354
tp69
ssa(dp70
S'Stone4'
p71
(dp72
g5
g6
sg7
I57
sg8
(I294
I240
tp73
ssa(dp74
S'Stone5'
p75
(dp76
g5
g6
sg7
I58
sg8
(I203
I196
tp77
ssa(dp78
S'Stone6'
p79
(dp80
g5
g13
sg7
I60
sg8
(I584
I188
tp81
ssa(dp82
S'Stone7'
p83
(dp84
g5
g28
sg7
I52
sg8
(I923
I144
tp85
ssa(dp86
S'Stone8'
p87
(dp88
g5
g28
sg7
I52
sg8
(I756
I83
tp89
ssa(dp90
g16
S'Tue, 04 Dec 2018 16:53:20 +0000'
p91
sa(dp92
S'Stone0'
p93
(dp94
g5
g28
sg7
I76
sg8
(I524
I403
tp95
ssa(dp96
S'Default Loaded'
p97
S'Tue, 04 Dec 2018 16:55:23 +0000'
p98
saa.