(lp0
(lp1
(dp2
S'Camera Start'
p3
S'Tue, 04 Dec 2018 15:53:17 +0000'
p4
sa(dp5
S'load_callibration '
p6
S'Tue, 04 Dec 2018 15:53:30 +0000'
p7
sag5
a(dp8
S'Stone0 '
p9
(dp10
S'theme'
p11
S'GREEN'
p12
sS'radius'
p13
I43
sS'center'
p14
(I83
I319
tp15
ssa(dp16
g6
S'Tue, 04 Dec 2018 15:53:45 +0000'
p17
sa(dp18
g6
S'Tue, 04 Dec 2018 15:54:58 +0000'
p19
sag18
a(dp20
g6
S'Tue, 04 Dec 2018 15:55:12 +0000'
p21
sag20
a(dp22
g3
S'Tue, 04 Dec 2018 15:55:25 +0000'
p23
sa(dp24
S'reset '
p25
S'Tue, 04 Dec 2018 15:55:25 +0000'
p26
sa(dp27
S'Stone0 '
p28
(dp29
g11
S'BLUE'
p30
sg13
I54
sg14
(I349
I263
tp31
ssa(dp32
S'Stone1 '
p33
(dp34
g11
g12
sg13
I43
sg14
(I130
I96
tp35
ssa(dp36
g6
S'Tue, 04 Dec 2018 15:55:29 +0000'
p37
saa.