(lp0
(lp1
(dp2
S'Camera Start'
p3
S'Mon, 03 Dec 2018 12:43:31 +0000'
p4
sa(dp5
S'Stone0 '
p6
(dp7
S'theme'
p8
S'GREEN'
p9
sS'radius'
p10
I45
sS'center'
p11
(I106
I344
tp12
ssa(dp13
S'Stone1 '
p14
(dp15
g8
g9
sg10
I51
sg11
(I64
I91
tp16
ssa(dp17
S'Stone2 '
p18
(dp19
g8
S'BLUE'
p20
sg10
I55
sg11
(I367
I67
tp21
ssa(dp22
S'load_callibration '
p23
S'Mon, 03 Dec 2018 12:43:35 +0000'
p24
sa(dp25
g3
S'Mon, 03 Dec 2018 12:43:38 +0000'
p26
sa(dp27
S'reset '
p28
S'Mon, 03 Dec 2018 12:43:38 +0000'
p29
saa.