(lp0
(lp1
(dp2
S'Stone0'
p3
(dp4
S'theme'
p5
S'GREEN'
p6
sS'radius'
p7
I59
sS'center'
p8
(I283
I572
tp9
ssa(dp10
S'Stone1'
p11
(dp12
g5
S'BLUE'
p13
sg7
I52
sg8
(I858
I115
tp14
ssa(dp15
S'Default Loaded'
p16
S'Mon, 03 Dec 2018 09:04:21 +0000'
p17
sa(dp18
S'reset '
p19
S'Mon, 03 Dec 2018 09:06:39 +0000'
p20
sa(dp21
S'Camera Start'
p22
S'Mon, 03 Dec 2018 09:06:42 +0000'
p23
sa(dp24
S'Stone0 '
p25
(dp26
g5
g13
sg7
I49
sg8
(I323
I311
tp27
ssa(dp28
S'load_callibration '
p29
S'Mon, 03 Dec 2018 09:06:43 +0000'
p30
sa(dp31
g22
S'Mon, 03 Dec 2018 09:06:55 +0000'
p32
sa(dp33
g19
S'Mon, 03 Dec 2018 09:06:55 +0000'
p34
sa(dp35
S'Stone0 '
p36
(dp37
g5
g13
sg7
I50
sg8
(I324
I310
tp38
ssa(dp39
S'Stone1 '
p40
(dp41
g5
g6
sg7
I56
sg8
(I324
I119
tp42
ssa(dp43
S'Stone2 '
p44
(dp45
g5
S'RED'
p46
sg7
I54
sg8
(I88
I87
tp47
ssa(dp48
g29
S'Mon, 03 Dec 2018 09:06:56 +0000'
p49
saa.