(lp0
(lp1
(dp2
S'Stone0'
p3
(dp4
S'theme'
p5
S'BLUE'
p6
sS'radius'
p7
I52
sS'center'
p8
(I247
I342
tp9
ssa(dp10
S'Stone1'
p11
(dp12
g5
S'RED'
p13
sg7
I60
sg8
(I755
I216
tp14
ssa(dp15
S'Default Loaded'
p16
S'Mon, 03 Dec 2018 12:00:54 +0000'
p17
sa(dp18
S'reset '
p19
S'Mon, 03 Dec 2018 12:03:05 +0000'
p20
sa(dp21
S'Stone0'
p22
(dp23
g5
g13
sg7
I61
sg8
(I226
I552
tp24
ssa(dp25
S'Stone1'
p26
(dp27
g5
S'GREEN'
p28
sg7
I57
sg8
(I768
I342
tp29
ssa(dp30
S'Stone2'
p31
(dp32
g5
g6
sg7
I52
sg8
(I866
I97
tp33
ssa(dp34
S'Stone3'
p35
(dp36
g5
g13
sg7
I75
sg8
(I129
I111
tp37
ssa(dp38
g16
S'Mon, 03 Dec 2018 12:03:08 +0000'
p39
sa(dp40
g19
S'Mon, 03 Dec 2018 12:07:46 +0000'
p41
sa(dp42
S'Stone0'
p43
(dp44
g5
g13
sg7
I61
sg8
(I869
I595
tp45
ssa(dp46
S'Stone1'
p47
(dp48
g5
g6
sg7
I52
sg8
(I277
I541
tp49
ssa(dp50
S'Stone2'
p51
(dp52
g5
g28
sg7
I57
sg8
(I482
I405
tp53
ssa(dp54
S'Stone3'
p55
(dp56
g5
g28
sg7
I57
sg8
(I906
I266
tp57
ssa(dp58
S'Stone4'
p59
(dp60
g5
g28
sg7
I60
sg8
(I296
I208
tp61
ssa(dp62
S'Stone5'
p63
(dp64
g5
g28
sg7
I58
sg8
(I107
I129
tp65
ssa(dp66
S'Stone6'
p67
(dp68
g5
g6
sg7
I52
sg8
(I693
I86
tp69
ssa(dp70
g16
S'Mon, 03 Dec 2018 12:07:52 +0000'
p71
sa(dp72
g19
S'Mon, 03 Dec 2018 12:10:16 +0000'
p73
sa(dp74
S'Stone0'
p75
(dp76
g5
g6
sg7
I52
sg8
(I464
I602
tp77
ssa(dp78
S'Stone1'
p79
(dp80
g5
g13
sg7
I60
sg8
(I137
I552
tp81
ssa(dp82
S'Stone2'
p83
(dp84
g5
g6
sg7
I52
sg8
(I762
I484
tp85
ssa(dp86
S'Stone3'
p87
(dp88
g5
g28
sg7
I60
sg8
(I484
I332
tp89
ssa(dp90
S'Stone4'
p91
(dp92
g5
g28
sg7
I58
sg8
(I913
I309
tp93
ssa(dp94
S'Stone5'
p95
(dp96
g5
g28
sg7
I59
sg8
(I271
I204
tp97
ssa(dp98
S'Stone6'
p99
(dp100
g5
g6
sg7
I52
sg8
(I573
I124
tp101
ssa(dp102
S'Stone7'
p103
(dp104
g5
g28
sg7
I58
sg8
(I944
I98
tp105
ssa(dp106
S'Stone8'
p107
(dp108
g5
g13
sg7
I60
sg8
(I53
I73
tp109
ssa(dp110
g16
S'Mon, 03 Dec 2018 12:10:19 +0000'
p111
sa(dp112
g19
S'Mon, 03 Dec 2018 12:12:05 +0000'
p113
sa(dp114
S'Stone0'
p115
(dp116
g5
g6
sg7
I77
sg8
(I525
I402
tp117
ssa(dp118
S'Default Loaded'
p119
S'Mon, 03 Dec 2018 12:12:18 +0000'
p120
sa(dp121
g19
S'Mon, 03 Dec 2018 12:15:21 +0000'
p122
sa(dp123
S'Camera Start'
p124
S'Mon, 03 Dec 2018 12:15:29 +0000'
p125
sa(dp126
S'Stone0 '
p127
(dp128
g5
g6
sg7
I52
sg8
(I66
I322
tp129
ssa(dp130
S'Stone1 '
p131
(dp132
g5
g28
sg7
I57
sg8
(I236
I174
tp133
ssa(dp134
S'Stone2 '
p135
(dp136
g5
g13
sg7
I52
sg8
(I376
I64
tp137
ssa(dp138
S'load_callibration '
p139
S'Mon, 03 Dec 2018 12:18:30 +0000'
p140
sa(dp141
g124
S'Mon, 03 Dec 2018 12:21:03 +0000'
p142
sa(dp143
g19
S'Mon, 03 Dec 2018 12:21:03 +0000'
p144
sa(dp145
S'Stone0 '
p146
(dp147
g5
g28
sg7
I48
sg8
(I123
I284
tp148
ssa(dp149
S'Stone1 '
p150
(dp151
g5
g6
sg7
I51
sg8
(I324
I255
tp152
ssa(dp153
S'Stone2 '
p154
(dp155
g5
g28
sg7
I53
sg8
(I345
I116
tp156
ssa(dp157
S'Stone3 '
p158
(dp159
g5
g28
sg7
I53
sg8
(I67
I92
tp160
ssa(dp161
g139
S'Mon, 03 Dec 2018 12:21:05 +0000'
p162
sa(dp163
g124
S'Mon, 03 Dec 2018 12:23:43 +0000'
p164
sa(dp165
g19
S'Mon, 03 Dec 2018 12:23:43 +0000'
p166
sa(dp167
S'Stone0 '
p168
(dp169
g5
g28
sg7
I55
sg8
(I327
I333
tp170
ssa(dp171
S'Stone1 '
p172
(dp173
g5
g6
sg7
I52
sg8
(I136
I302
tp174
ssa(dp175
S'Stone2 '
p176
(dp177
g5
g13
sg7
I53
sg8
(I227
I188
tp178
ssa(dp179
S'Stone3 '
p180
(dp181
g5
g6
sg7
I56
sg8
(I374
I176
tp182
ssa(dp183
S'Stone4 '
p184
(dp185
g5
g13
sg7
I58
sg8
(I64
I70
tp186
ssa(dp187
S'Stone5 '
p188
(dp189
g5
g28
sg7
I42
sg8
(I247
I73
tp190
ssa(dp191
g139
S'Mon, 03 Dec 2018 12:24:41 +0000'
p192
sa(dp193
S'Stone0'
p194
(dp195
g5
g28
sg7
I59
sg8
(I140
I495
tp196
ssa(dp197
S'Stone1'
p198
(dp199
g5
g6
sg7
I51
sg8
(I827
I109
tp200
ssa(dp201
g119
S'Mon, 03 Dec 2018 12:26:40 +0000'
p202
sa(dp203
g124
S'Mon, 03 Dec 2018 12:28:52 +0000'
p204
sa(dp205
g19
S'Mon, 03 Dec 2018 12:28:52 +0000'
p206
sa(dp207
g124
S'Mon, 03 Dec 2018 12:28:54 +0000'
p208
sa(dp209
S'Stone0 '
p210
(dp211
g5
g28
sg7
I50
sg8
(I111
I340
tp212
ssa(dp213
S'Stone1 '
p214
(dp215
g5
g28
sg7
I52
sg8
(I64
I91
tp216
ssa(dp217
S'Stone2 '
p218
(dp219
g5
g6
sg7
I54
sg8
(I366
I68
tp220
ssa(dp221
g139
S'Mon, 03 Dec 2018 12:28:55 +0000'
p222
saa.